Component: ARM Compiler 5.06 update 6 (build 750) Tool: armlink [4d35ed]

==============================================================================

Section Cross References

    main.o(i.AppTaskCreate) refers to tasks.o(i.xTaskGenericCreate) for xTaskGenericCreate
    main.o(i.AppTaskCreate) refers to main.o(.data) for xHandleTaskLCD
    main.o(i.AppTaskCreate) refers to main.o(i.vTaskLCD) for vTaskLCD
    main.o(i.AppTaskCreate) refers to main.o(i.vTaskMotorCtrl) for vTaskMotorCtrl
    main.o(i.AppTaskCreate) refers to main.o(i.vTaskSensor) for vTaskSensor
    main.o(i.AppTaskCreate) refers to main.o(i.vTaskAdc) for vTaskAdc
    main.o(i.AppTaskCreate) refers to main.o(i.vTaskBle) for vTaskBle
    main.o(i.BLE_Test) refers to bsp_uart_fifo.o(i.comGetChar) for comGetChar
    main.o(i.BLE_Test) refers to bsp_uart_fifo.o(i.comSendChar) for comSendChar
    main.o(i.P_GetMsgFromUart) refers to bsp_uart_fifo.o(i.comGetLen) for comGetLen
    main.o(i.P_GetMsgFromUart) refers to bsp_uart_fifo.o(i.comGetChar) for comGetChar
    main.o(i.P_GetMsgFromUart) refers to tasks.o(i.vTaskDelay) for vTaskDelay
    main.o(i.TMY_ParaInit) refers to bsp_motor.o(.bss) for Motor
    main.o(i.TMY_ParaInit) refers to main.o(.bss) for Tmy
    main.o(i.main) refers to bsp.o(i.bsp_Init) for bsp_Init
    main.o(i.main) refers to debug.o(i.debug_en) for debug_en
    main.o(i.main) refers to save2flash.o(i.ReadFromFlash) for ReadFromFlash
    main.o(i.main) refers to main.o(i.TMY_ParaInit) for TMY_ParaInit
    main.o(i.main) refers to main.o(i.start_set) for start_set
    main.o(i.main) refers to main.o(i.AppTaskCreate) for AppTaskCreate
    main.o(i.main) refers to tasks.o(i.vTaskStartScheduler) for vTaskStartScheduler
    main.o(i.start_set) refers to debug.o(i.debug_usr) for debug_usr
    main.o(i.start_set) refers to printf8.o(i.__0printf$8) for __2printf
    main.o(i.vTaskAdc) refers to hx711.o(i.HX711_Init) for HX711_Init
    main.o(i.vTaskAdc) refers to tasks.o(i.vTaskDelay) for vTaskDelay
    main.o(i.vTaskAdc) refers to hx711.o(i.HX711_Read) for HX711_Read
    main.o(i.vTaskAdc) refers to hx711.o(i.PRE_GetLevel) for PRE_GetLevel
    main.o(i.vTaskAdc) refers to main.o(.bss) for Tmy
    main.o(i.vTaskBle) refers to bsp_ble.o(i.BLE_Init) for BLE_Init
    main.o(i.vTaskBle) refers to bsp_ble.o(i.BLE_HwReset) for BLE_HwReset
    main.o(i.vTaskBle) refers to tasks.o(i.vTaskDelay) for vTaskDelay
    main.o(i.vTaskBle) refers to printf8.o(i.__0printf$8) for __2printf
    main.o(i.vTaskBle) refers to bsp_uart_fifo.o(i.comGetChar) for comGetChar
    main.o(i.vTaskBle) refers to bsp_key.o(i.bsp_PutKey) for bsp_PutKey
    main.o(i.vTaskLCD) refers to bsp_uart_lcd.o(i.ULCD_Init) for ULCD_Init
    main.o(i.vTaskLCD) refers to printf8.o(i.__0printf$8) for __2printf
    main.o(i.vTaskLCD) refers to bsp_led.o(i.bsp_LedOff) for bsp_LedOff
    main.o(i.vTaskLCD) refers to tasks.o(i.vTaskDelay) for vTaskDelay
    main.o(i.vTaskLCD) refers to bsp_uart_lcd.o(i.ULCD_Task) for ULCD_Task
    main.o(i.vTaskMotorCtrl) refers to bsp_motor.o(i.MOTOR_Init) for MOTOR_Init
    main.o(i.vTaskMotorCtrl) refers to bsp_motor.o(i.MOTOR_SetDir) for MOTOR_SetDir
    main.o(i.vTaskMotorCtrl) refers to tasks.o(i.vTaskDelay) for vTaskDelay
    main.o(i.vTaskMotorCtrl) refers to bsp_key.o(i.bsp_GetKey) for bsp_GetKey
    main.o(i.vTaskMotorCtrl) refers to hmi_driver.o(i.SetTextValue) for SetTextValue
    main.o(i.vTaskMotorCtrl) refers to bsp_motor.o(i.MOTOR_SetSpeed) for MOTOR_SetSpeed
    main.o(i.vTaskMotorCtrl) refers to bsp_motor.o(i.MOTOR_Stop) for MOTOR_Stop
    main.o(i.vTaskMotorCtrl) refers to hmi_driver.o(i.SetTextInt32) for SetTextInt32
    main.o(i.vTaskMotorCtrl) refers to hmi_driver.o(i.PlayMusic) for PlayMusic
    main.o(i.vTaskMotorCtrl) refers to bsp_uart_lcd.o(i.LCD_ParaInit) for LCD_ParaInit
    main.o(i.vTaskMotorCtrl) refers to hmi_driver.o(i.SetBuzzer) for SetBuzzer
    main.o(i.vTaskMotorCtrl) refers to bsp_motor.o(i.MOTOR_ClrStep) for MOTOR_ClrStep
    main.o(i.vTaskMotorCtrl) refers to bsp_motor.o(.bss) for Motor
    main.o(i.vTaskMotorCtrl) refers to main.o(.data) for dev_sta
    main.o(i.vTaskMotorCtrl) refers to bsp_uart_lcd.o(.data) for lg_lcd_init
    main.o(i.vTaskMotorCtrl) refers to bsp_simple_timer.o(.data) for timer_pedal_up
    main.o(i.vTaskMotorCtrl) refers to main.o(.bss) for Tmy
    main.o(i.vTaskMotorCtrl) refers to bsp_motor.o(.data) for MOTOR_SPEED_INDEX
    main.o(i.vTaskSensor) refers to tasks.o(i.vTaskDelay) for vTaskDelay
    main.o(i.vTaskSensor) refers to bsp_adc_int.o(i.ADC1_GetV) for ADC1_GetV
    main.o(i.vTaskSensor) refers to hmi_driver.o(i.SetTextValue) for SetTextValue
    main.o(i.vTaskSensor) refers to bsp_key.o(i.bsp_GetKeyState) for bsp_GetKeyState
    main.o(i.vTaskSensor) refers to main.o(.bss) for Tmy
    main.o(i.vTaskSensor) refers to bsp_motor.o(.bss) for Motor
    bsp_motor.o(i.MOTOR_ClrStep) refers to bsp_motor.o(.bss) for Motor
    bsp_motor.o(i.MOTOR_Init) refers to bsp_motor.o(i.motor_dir_init) for motor_dir_init
    bsp_motor.o(i.MOTOR_Init) refers to bsp_motor.o(i.motor_pul_init) for motor_pul_init
    bsp_motor.o(i.MOTOR_Init) refers to bsp_motor.o(.bss) for Motor
    bsp_motor.o(i.MOTOR_SetDir) refers to stm32f10x_gpio.o(i.GPIO_SetBits) for GPIO_SetBits
    bsp_motor.o(i.MOTOR_SetDir) refers to stm32f10x_gpio.o(i.GPIO_ResetBits) for GPIO_ResetBits
    bsp_motor.o(i.MOTOR_SetDir) refers to tasks.o(i.vTaskDelay) for vTaskDelay
    bsp_motor.o(i.MOTOR_SetDir) refers to hmi_driver.o(i.SetTextValue) for SetTextValue
    bsp_motor.o(i.MOTOR_SetDir) refers to bsp_motor.o(.bss) for Motor
    bsp_motor.o(i.MOTOR_SetSpeed) refers to stm32f10x_tim.o(i.TIM_SetAutoreload) for TIM_SetAutoreload
    bsp_motor.o(i.MOTOR_SetSpeed) refers to stm32f10x_tim.o(i.TIM_SetCompare4) for TIM_SetCompare4
    bsp_motor.o(i.MOTOR_SetSpeed) refers to stm32f10x_tim.o(i.TIM_SetCounter) for TIM_SetCounter
    bsp_motor.o(i.MOTOR_SetSpeed) refers to bsp_motor.o(i.MOTOR_Start) for MOTOR_Start
    bsp_motor.o(i.MOTOR_SetSpeed) refers to hmi_driver.o(i.SetTextInt32) for SetTextInt32
    bsp_motor.o(i.MOTOR_SetSpeed) refers to bsp_motor.o(.bss) for Motor
    bsp_motor.o(i.MOTOR_Start) refers to stm32f10x_tim.o(i.TIM_Cmd) for TIM_Cmd
    bsp_motor.o(i.MOTOR_Start) refers to bsp_motor.o(.bss) for Motor
    bsp_motor.o(i.MOTOR_Stop) refers to stm32f10x_tim.o(i.TIM_Cmd) for TIM_Cmd
    bsp_motor.o(i.MOTOR_Stop) refers to bsp_motor.o(.bss) for Motor
    bsp_motor.o(i.Pulse_outputT1T2) refers to bsp_motor.o(i.TIM1_config) for TIM1_config
    bsp_motor.o(i.TIM1_UP_IRQHandler) refers to stm32f10x_tim.o(i.TIM_GetITStatus) for TIM_GetITStatus
    bsp_motor.o(i.TIM1_UP_IRQHandler) refers to stm32f10x_tim.o(i.TIM_ClearITPendingBit) for TIM_ClearITPendingBit
    bsp_motor.o(i.TIM1_UP_IRQHandler) refers to bsp_motor.o(.bss) for Motor
    bsp_motor.o(i.TIM1_config) refers to stm32f10x_rcc.o(i.RCC_APB2PeriphClockCmd) for RCC_APB2PeriphClockCmd
    bsp_motor.o(i.TIM1_config) refers to stm32f10x_gpio.o(i.GPIO_Init) for GPIO_Init
    bsp_motor.o(i.TIM1_config) refers to stm32f10x_tim.o(i.TIM_TimeBaseInit) for TIM_TimeBaseInit
    bsp_motor.o(i.TIM1_config) refers to stm32f10x_tim.o(i.TIM_OC4Init) for TIM_OC4Init
    bsp_motor.o(i.TIM1_config) refers to stm32f10x_tim.o(i.TIM_ARRPreloadConfig) for TIM_ARRPreloadConfig
    bsp_motor.o(i.TIM1_config) refers to stm32f10x_tim.o(i.TIM_OC4PreloadConfig) for TIM_OC4PreloadConfig
    bsp_motor.o(i.TIM1_config) refers to stm32f10x_tim.o(i.TIM_CtrlPWMOutputs) for TIM_CtrlPWMOutputs
    bsp_motor.o(i.TIM1_config) refers to stm32f10x_tim.o(i.TIM_Cmd) for TIM_Cmd
    bsp_motor.o(i.TIM1_config) refers to stm32f10x_tim.o(i.TIM_ITConfig) for TIM_ITConfig
    bsp_motor.o(i.TIM1_config) refers to misc.o(i.NVIC_Init) for NVIC_Init
    bsp_motor.o(i.TIM2_config) refers to stm32f10x_rcc.o(i.RCC_APB1PeriphClockCmd) for RCC_APB1PeriphClockCmd
    bsp_motor.o(i.TIM2_config) refers to stm32f10x_tim.o(i.TIM_TimeBaseInit) for TIM_TimeBaseInit
    bsp_motor.o(i.TIM2_config) refers to stm32f10x_tim.o(i.TIM_ITConfig) for TIM_ITConfig
    bsp_motor.o(i.TIM2_config) refers to stm32f10x_tim.o(i.TIM_Cmd) for TIM_Cmd
    bsp_motor.o(i.TIM2_config) refers to misc.o(i.NVIC_Init) for NVIC_Init
    bsp_motor.o(i.motor_dir_init) refers to stm32f10x_rcc.o(i.RCC_APB2PeriphClockCmd) for RCC_APB2PeriphClockCmd
    bsp_motor.o(i.motor_dir_init) refers to stm32f10x_gpio.o(i.GPIO_Init) for GPIO_Init
    bsp_motor.o(i.motor_dir_init) refers to stm32f10x_gpio.o(i.GPIO_ResetBits) for GPIO_ResetBits
    bsp_motor.o(i.motor_pul_init) refers to bsp_motor.o(i.TIM1_config) for TIM1_config
    bsp_motor.o(i.pulse_set_f) refers to stm32f10x_tim.o(i.TIM_SetAutoreload) for TIM_SetAutoreload
    bsp_motor.o(i.pulse_set_f) refers to stm32f10x_tim.o(i.TIM_SetCompare4) for TIM_SetCompare4
    bsp_motor.o(i.pulse_set_f) refers to stm32f10x_tim.o(i.TIM_SetCounter) for TIM_SetCounter
    bsp_motor.o(i.pulse_start) refers to stm32f10x_tim.o(i.TIM_Cmd) for TIM_Cmd
    bsp_uart_lcd.o(i.LCD_GetScreenId) refers to bsp_uart_lcd.o(.data) for current_screen_id
    bsp_uart_lcd.o(i.LCD_ParaInit) refers to hmi_driver.o(i.SetTextValue) for SetTextValue
    bsp_uart_lcd.o(i.LCD_ParaInit) refers to hmi_driver.o(i.SetTextInt32) for SetTextInt32
    bsp_uart_lcd.o(i.LCD_ParaInit) refers to hmi_driver.o(i.SetButtonValue) for SetButtonValue
    bsp_uart_lcd.o(i.LCD_ParaInit) refers to hmi_driver.o(i.AnimationPlayFrame) for AnimationPlayFrame
    bsp_uart_lcd.o(i.LCD_ParaInit) refers to bsp_motor.o(.bss) for Motor
    bsp_uart_lcd.o(i.LCD_ParaInit) refers to main.o(.bss) for Tmy
    bsp_uart_lcd.o(i.NOTIFYHandShake) refers to hmi_driver.o(i.SetButtonValue) for SetButtonValue
    bsp_uart_lcd.o(i.NotifyButton) refers to bsp_motor.o(i.MOTOR_SetDir) for MOTOR_SetDir
    bsp_uart_lcd.o(i.NotifyButton) refers to hmi_driver.o(i.SetTextInt32) for SetTextInt32
    bsp_uart_lcd.o(i.NotifyButton) refers to hmi_driver.o(i.SetControlVisiable) for SetControlVisiable
    bsp_uart_lcd.o(i.NotifyButton) refers to hx711.o(i.PRE_Adjust) for PRE_Adjust
    bsp_uart_lcd.o(i.NotifyButton) refers to hmi_driver.o(i.SetTextValue) for SetTextValue
    bsp_uart_lcd.o(i.NotifyButton) refers to main.o(.bss) for Tmy
    bsp_uart_lcd.o(i.NotifyButton) refers to bsp_motor.o(.bss) for Motor
    bsp_uart_lcd.o(i.NotifyButton) refers to main.o(.data) for dg_sta
    bsp_uart_lcd.o(i.NotifyScreen) refers to bsp_dwt.o(i.delay_ms) for delay_ms
    bsp_uart_lcd.o(i.NotifyScreen) refers to hmi_driver.o(i.SetTextInt32) for SetTextInt32
    bsp_uart_lcd.o(i.NotifyScreen) refers to bsp_uart_lcd.o(.data) for current_screen_id
    bsp_uart_lcd.o(i.NotifyScreen) refers to save2flash.o(.bss) for data_saved
    bsp_uart_lcd.o(i.NotifySlider) refers to hmi_driver.o(i.SetProgressValue) for SetProgressValue
    bsp_uart_lcd.o(i.NotifySlider) refers to hmi_driver.o(i.SetTextInt32) for SetTextInt32
    bsp_uart_lcd.o(i.NotifyText) refers to _scanf_int.o(.text) for _scanf_int
    bsp_uart_lcd.o(i.NotifyText) refers to __0sscanf.o(.text) for __0sscanf
    bsp_uart_lcd.o(i.NotifyText) refers to hmi_driver.o(i.SetTextInt32) for SetTextInt32
    bsp_uart_lcd.o(i.ProcessMessage) refers to bsp_uart_lcd.o(i.NotifyTouchXY) for NotifyTouchXY
    bsp_uart_lcd.o(i.ProcessMessage) refers to bsp_uart_lcd.o(i.NotifyWriteFlash) for NotifyWriteFlash
    bsp_uart_lcd.o(i.ProcessMessage) refers to bsp_uart_lcd.o(i.NotifyReadFlash) for NotifyReadFlash
    bsp_uart_lcd.o(i.ProcessMessage) refers to bsp_uart_lcd.o(i.NotifyReadRTC) for NotifyReadRTC
    bsp_uart_lcd.o(i.ProcessMessage) refers to bsp_uart_lcd.o(i.NotifyScreen) for NotifyScreen
    bsp_uart_lcd.o(i.ProcessMessage) refers to bsp_uart_lcd.o(i.NotifyButton) for NotifyButton
    bsp_uart_lcd.o(i.ProcessMessage) refers to bsp_uart_lcd.o(i.NotifyText) for NotifyText
    bsp_uart_lcd.o(i.ProcessMessage) refers to bsp_uart_lcd.o(i.NotifyProgress) for NotifyProgress
    bsp_uart_lcd.o(i.ProcessMessage) refers to bsp_uart_lcd.o(i.NotifySlider) for NotifySlider
    bsp_uart_lcd.o(i.ProcessMessage) refers to bsp_uart_lcd.o(i.NotifyMeter) for NotifyMeter
    bsp_uart_lcd.o(i.ProcessMessage) refers to bsp_uart_lcd.o(i.NotifyMenu) for NotifyMenu
    bsp_uart_lcd.o(i.ProcessMessage) refers to bsp_uart_lcd.o(i.NotifySelector) for NotifySelector
    bsp_uart_lcd.o(i.ProcessMessage) refers to bsp_uart_lcd.o(i.NotifyTimer) for NotifyTimer
    bsp_uart_lcd.o(i.ProcessMessage) refers to bsp_uart_lcd.o(i.NOTIFYHandShake) for NOTIFYHandShake
    bsp_uart_lcd.o(i.ProcessMessage) refers to bsp_uart_lcd.o(.bss) for cmd_buffer
    bsp_uart_lcd.o(i.ULCD_Init) refers to bsp_uart_lcd.o(i.ULCD_InitIO) for ULCD_InitIO
    bsp_uart_lcd.o(i.ULCD_Init) refers to tasks.o(i.vTaskDelay) for vTaskDelay
    bsp_uart_lcd.o(i.ULCD_Init) refers to bsp_uart_lcd.o(.data) for lcd_prosser
    bsp_uart_lcd.o(i.ULCD_InitIO) refers to stm32f10x_rcc.o(i.RCC_APB2PeriphClockCmd) for RCC_APB2PeriphClockCmd
    bsp_uart_lcd.o(i.ULCD_InitIO) refers to stm32f10x_gpio.o(i.GPIO_Init) for GPIO_Init
    bsp_uart_lcd.o(i.ULCD_InitIO) refers to stm32f10x_gpio.o(i.GPIO_SetBits) for GPIO_SetBits
    bsp_uart_lcd.o(i.ULCD_Task) refers to cmd_queue.o(i.queue_find_cmd) for queue_find_cmd
    bsp_uart_lcd.o(i.ULCD_Task) refers to bsp_uart_lcd.o(i.ProcessMessage) for ProcessMessage
    bsp_uart_lcd.o(i.ULCD_Task) refers to bsp_uart_lcd.o(i.UpdateUI) for UpdateUI
    bsp_uart_lcd.o(i.ULCD_Task) refers to hmi_driver.o(i.SetBuzzer) for SetBuzzer
    bsp_uart_lcd.o(i.ULCD_Task) refers to bsp_uart_lcd.o(.bss) for cmd_buffer
    bsp_uart_lcd.o(i.ULCD_Task) refers to bsp_uart_lcd.o(.data) for timer_lcd_update
    bsp_uart_lcd.o(i.ULCD_Task) refers to bsp_motor.o(.bss) for Motor
    bsp_uart_lcd.o(i.ULCD_Task) refers to main.o(.data) for dg_sta
    bsp_uart_lcd.o(i.ULCD_Task) refers to bsp_motor.o(.data) for BEEP_TIMER
    bsp_uart_lcd.o(i.UpdateUI) refers to hmi_driver.o(i.AnimationPlayFrame) for AnimationPlayFrame
    bsp_uart_lcd.o(i.UpdateUI) refers to hmi_driver.o(i.SetProgressValue) for SetProgressValue
    bsp_uart_lcd.o(i.UpdateUI) refers to hmi_driver.o(i.SetTextInt32) for SetTextInt32
    bsp_uart_lcd.o(i.UpdateUI) refers to hmi_driver.o(i.SetControlVisiable) for SetControlVisiable
    bsp_uart_lcd.o(i.UpdateUI) refers to hmi_driver.o(i.SetTextValue) for SetTextValue
    bsp_uart_lcd.o(i.UpdateUI) refers to hmi_driver.o(i.SetControlEnable) for SetControlEnable
    bsp_uart_lcd.o(i.UpdateUI) refers to bsp_uart_lcd.o(.data) for current_screen_id
    bsp_uart_lcd.o(i.UpdateUI) refers to bsp_ble.o(.data) for ble_state_tem
    bsp_uart_lcd.o(i.UpdateUI) refers to bsp_ble.o(.bss) for Ble
    bsp_uart_lcd.o(i.UpdateUI) refers to bsp_motor.o(.bss) for Motor
    bsp_uart_lcd.o(i.UpdateUI) refers to main.o(.bss) for Tmy
    bsp_uart_lcd.o(i.UpdateUI) refers to main.o(.data) for dg_sta
    filter.o(i.FILTER_Clear) refers to filter.o(.bss) for FilterTem
    filter.o(i.FILTER_Get) refers to filter.o(.bss) for FilterTem
    filter.o(i.FILTER_Push) refers to filter.o(.bss) for FilterTem
    debug.o(i.debug_at) refers to printf8.o(i.__0printf$8) for __2printf
    debug.o(i.debug_at) refers to debug.o(.data) for lg_debug_en
    debug.o(i.debug_ble) refers to printf8.o(i.__0printf$8) for __2printf
    debug.o(i.debug_ble) refers to debug.o(.data) for lg_debug_en
    debug.o(i.debug_en) refers to debug.o(.data) for lg_debug_en
    debug.o(i.debug_usr) refers to printf8.o(i.__0printf$8) for __2printf
    debug.o(i.debug_usr) refers to debug.o(.data) for lg_debug_en
    debug.o(i.debug_usr_hex) refers to debug.o(.data) for lg_debug_en
    save2flash.o(i.MemWriteByte) refers to stm32f10x_flash.o(i.FLASH_Unlock) for FLASH_Unlock
    save2flash.o(i.MemWriteByte) refers to stm32f10x_flash.o(i.FLASH_ErasePage) for FLASH_ErasePage
    save2flash.o(i.MemWriteByte) refers to stm32f10x_flash.o(i.FLASH_Lock) for FLASH_Lock
    save2flash.o(i.MemWriteByte) refers to stm32f10x_flash.o(i.FLASH_ProgramHalfWord) for FLASH_ProgramHalfWord
    save2flash.o(i.Msg_Read) refers to stm32f10x_flash.o(i.FLASH_Unlock) for FLASH_Unlock
    save2flash.o(i.Msg_Write) refers to stm32f10x_flash.o(i.FLASH_Unlock) for FLASH_Unlock
    save2flash.o(i.Msg_Write) refers to stm32f10x_flash.o(i.FLASH_ErasePage) for FLASH_ErasePage
    save2flash.o(i.Msg_Write) refers to stm32f10x_flash.o(i.FLASH_Lock) for FLASH_Lock
    save2flash.o(i.Msg_Write) refers to save2flash.o(i.Msg_WriteNoCheck) for Msg_WriteNoCheck
    save2flash.o(i.Msg_WriteNoCheck) refers to stm32f10x_flash.o(i.FLASH_ProgramHalfWord) for FLASH_ProgramHalfWord
    save2flash.o(i.Msg_WriteNoCheck) refers to debug.o(i.debug_usr) for debug_usr
    save2flash.o(i.ReadFromFlash) refers to save2flash.o(i.MemReadByte) for MemReadByte
    save2flash.o(i.ReadFromFlash) refers to save2flash.o(.bss) for data_saved
    save2flash.o(i.ReadMsgToRam) refers to save2flash.o(i.bkd_save) for bkd_save
    save2flash.o(i.ReadMsgToRam) refers to stm32f10x_flash.o(i.FLASH_Unlock) for FLASH_Unlock
    save2flash.o(i.ReadMsgToRam) refers to save2flash.o(i.Msg_Read) for Msg_Read
    save2flash.o(i.ReadMsgToRam) refers to stm32f10x_flash.o(i.FLASH_Lock) for FLASH_Lock
    save2flash.o(i.ReadMsgToRam) refers to save2flash.o(.data) for MsgSaveAddr
    save2flash.o(i.SaveMsgToFlash) refers to save2flash.o(i.bkd_save) for bkd_save
    save2flash.o(i.SaveMsgToFlash) refers to save2flash.o(i.Msg_Write) for Msg_Write
    save2flash.o(i.SaveMsgToFlash) refers to debug.o(i.debug_usr) for debug_usr
    save2flash.o(i.SaveMsgToFlash) refers to save2flash.o(.data) for MsgSaveAddr
    save2flash.o(i.SaveToFlash) refers to save2flash.o(i.MemWriteByte) for MemWriteByte
    save2flash.o(i.SaveToFlash) refers to save2flash.o(.bss) for data_saved
    save2flash.o(i.bkd_read) refers to eeprom.o(i.EE_ReadVariable) for EE_ReadVariable
    save2flash.o(i.bkd_read) refers to printf8.o(i.__0printf$8) for __2printf
    save2flash.o(i.bkd_read) refers to save2flash.o(.data) for Bkd
    save2flash.o(i.bkd_save) refers to eeprom.o(i.EE_WriteVariable) for EE_WriteVariable
    save2flash.o(i.bkd_save) refers to save2flash.o(.data) for Bkd
    save2flash.o(i.msg_get_num) refers to save2flash.o(.data) for MsgSaveAddr
    eeprom.o(i.EE_Format) refers to stm32f10x_flash.o(i.FLASH_ErasePage) for FLASH_ErasePage
    eeprom.o(i.EE_Format) refers to stm32f10x_flash.o(i.FLASH_ProgramHalfWord) for FLASH_ProgramHalfWord
    eeprom.o(i.EE_Init) refers to stm32f10x_flash.o(i.FLASH_ErasePage) for FLASH_ErasePage
    eeprom.o(i.EE_Init) refers to stm32f10x_flash.o(i.FLASH_ProgramHalfWord) for FLASH_ProgramHalfWord
    eeprom.o(i.EE_Init) refers to eeprom.o(i.EE_Format) for EE_Format
    eeprom.o(i.EE_Init) refers to eeprom.o(i.EE_ReadVariable) for EE_ReadVariable
    eeprom.o(i.EE_Init) refers to eeprom.o(i.EE_VerifyPageFullWriteVariable) for EE_VerifyPageFullWriteVariable
    eeprom.o(i.EE_Init) refers to save2flash.o(.data) for VirtAddVarTab
    eeprom.o(i.EE_Init) refers to eeprom.o(.data) for DataVar
    eeprom.o(i.EE_PageTransfer) refers to eeprom.o(i.EE_FindValidPage) for EE_FindValidPage
    eeprom.o(i.EE_PageTransfer) refers to stm32f10x_flash.o(i.FLASH_ProgramHalfWord) for FLASH_ProgramHalfWord
    eeprom.o(i.EE_PageTransfer) refers to eeprom.o(i.EE_VerifyPageFullWriteVariable) for EE_VerifyPageFullWriteVariable
    eeprom.o(i.EE_PageTransfer) refers to eeprom.o(i.EE_ReadVariable) for EE_ReadVariable
    eeprom.o(i.EE_PageTransfer) refers to stm32f10x_flash.o(i.FLASH_ErasePage) for FLASH_ErasePage
    eeprom.o(i.EE_PageTransfer) refers to save2flash.o(.data) for VirtAddVarTab
    eeprom.o(i.EE_PageTransfer) refers to eeprom.o(.data) for DataVar
    eeprom.o(i.EE_ReadVariable) refers to eeprom.o(i.EE_FindValidPage) for EE_FindValidPage
    eeprom.o(i.EE_VerifyPageFullWriteVariable) refers to eeprom.o(i.EE_FindValidPage) for EE_FindValidPage
    eeprom.o(i.EE_VerifyPageFullWriteVariable) refers to stm32f10x_flash.o(i.FLASH_ProgramHalfWord) for FLASH_ProgramHalfWord
    eeprom.o(i.EE_WriteVariable) refers to eeprom.o(i.EE_VerifyPageFullWriteVariable) for EE_VerifyPageFullWriteVariable
    eeprom.o(i.EE_WriteVariable) refers to eeprom.o(i.EE_PageTransfer) for EE_PageTransfer
    bsp.o(i.bsp_Init) refers to misc.o(i.NVIC_PriorityGroupConfig) for NVIC_PriorityGroupConfig
    bsp.o(i.bsp_Init) refers to bsp_dwt.o(i.bsp_InitDWT) for bsp_InitDWT
    bsp.o(i.bsp_Init) refers to bsp_uart_fifo.o(i.bsp_InitUart) for bsp_InitUart
    bsp.o(i.bsp_Init) refers to bsp_led.o(i.bsp_InitLed) for bsp_InitLed
    bsp.o(i.bsp_Init) refers to bsp_key.o(i.bsp_InitKey) for bsp_InitKey
    bsp.o(i.bsp_Init) refers to bsp_simple_timer.o(i.TimeInit) for TimeInit
    bsp.o(i.bsp_Init) refers to bsp_beep.o(i.BEEP_InitHard) for BEEP_InitHard
    bsp.o(i.bsp_Init) refers to bsp_adc_int.o(i.ADC1_Init) for ADC1_Init
    bsp_key.o(i.bsp_ClearKey) refers to bsp_key.o(.bss) for s_tKey
    bsp_key.o(i.bsp_DetectKey) refers to bsp_key.o(i.bsp_PutKey) for bsp_PutKey
    bsp_key.o(i.bsp_DetectKey) refers to bsp_key.o(.bss) for s_tBtn
    bsp_key.o(i.bsp_GetKey) refers to bsp_key.o(.bss) for s_tKey
    bsp_key.o(i.bsp_GetKey2) refers to bsp_key.o(.bss) for s_tKey
    bsp_key.o(i.bsp_GetKeyState) refers to bsp_key.o(.bss) for s_tBtn
    bsp_key.o(i.bsp_InitKey) refers to bsp_key.o(i.bsp_InitKeyVar) for bsp_InitKeyVar
    bsp_key.o(i.bsp_InitKey) refers to bsp_key.o(i.bsp_InitKeyHard) for bsp_InitKeyHard
    bsp_key.o(i.bsp_InitKeyHard) refers to stm32f10x_rcc.o(i.RCC_APB2PeriphClockCmd) for RCC_APB2PeriphClockCmd
    bsp_key.o(i.bsp_InitKeyHard) refers to stm32f10x_gpio.o(i.GPIO_Init) for GPIO_Init
    bsp_key.o(i.bsp_InitKeyVar) refers to bsp_key.o(.bss) for s_tKey
    bsp_key.o(i.bsp_InitKeyVar) refers to bsp_key.o(i.IsKeyDown1) for IsKeyDown1
    bsp_key.o(i.bsp_InitKeyVar) refers to bsp_key.o(i.IsKeyDown2) for IsKeyDown2
    bsp_key.o(i.bsp_InitKeyVar) refers to bsp_key.o(i.IsKeyDown3) for IsKeyDown3
    bsp_key.o(i.bsp_InitKeyVar) refers to bsp_key.o(i.IsKeyDown4) for IsKeyDown4
    bsp_key.o(i.bsp_InitKeyVar) refers to bsp_key.o(i.IsKeyDown5) for IsKeyDown5
    bsp_key.o(i.bsp_InitKeyVar) refers to bsp_key.o(i.IsKeyDown6) for IsKeyDown6
    bsp_key.o(i.bsp_InitKeyVar) refers to bsp_key.o(i.IsKeyDown7) for IsKeyDown7
    bsp_key.o(i.bsp_InitKeyVar) refers to bsp_key.o(i.IsKeyDown8) for IsKeyDown8
    bsp_key.o(i.bsp_InitKeyVar) refers to bsp_key.o(i.IsKeyDown9) for IsKeyDown9
    bsp_key.o(i.bsp_InitKeyVar) refers to bsp_key.o(i.IsKeyDown10) for IsKeyDown10
    bsp_key.o(i.bsp_InitKeyVar) refers to bsp_key.o(i.IsKeyDown11) for IsKeyDown11
    bsp_key.o(i.bsp_KeyScan) refers to bsp_key.o(i.bsp_DetectKey) for bsp_DetectKey
    bsp_key.o(i.bsp_PutKey) refers to bsp_key.o(.bss) for s_tKey
    bsp_key.o(i.bsp_SetKeyParam) refers to bsp_key.o(.bss) for s_tBtn
    bsp_led.o(i.bsp_InitLed) refers to stm32f10x_rcc.o(i.RCC_APB2PeriphClockCmd) for RCC_APB2PeriphClockCmd
    bsp_led.o(i.bsp_InitLed) refers to bsp_led.o(i.bsp_LedOff) for bsp_LedOff
    bsp_led.o(i.bsp_InitLed) refers to stm32f10x_gpio.o(i.GPIO_Init) for GPIO_Init
    bsp_uart_fifo.o(i.ComToUart) refers to bsp_uart_fifo.o(.bss) for g_tUart1
    bsp_uart_fifo.o(i.ConfigUartNVIC) refers to misc.o(i.NVIC_Init) for NVIC_Init
    bsp_uart_fifo.o(i.InitHardUart) refers to stm32f10x_rcc.o(i.RCC_APB2PeriphClockCmd) for RCC_APB2PeriphClockCmd
    bsp_uart_fifo.o(i.InitHardUart) refers to stm32f10x_gpio.o(i.GPIO_Init) for GPIO_Init
    bsp_uart_fifo.o(i.InitHardUart) refers to stm32f10x_usart.o(i.USART_Init) for USART_Init
    bsp_uart_fifo.o(i.InitHardUart) refers to stm32f10x_usart.o(i.USART_ITConfig) for USART_ITConfig
    bsp_uart_fifo.o(i.InitHardUart) refers to stm32f10x_usart.o(i.USART_Cmd) for USART_Cmd
    bsp_uart_fifo.o(i.InitHardUart) refers to stm32f10x_usart.o(i.USART_ClearFlag) for USART_ClearFlag
    bsp_uart_fifo.o(i.InitHardUart) refers to stm32f10x_rcc.o(i.RCC_APB1PeriphClockCmd) for RCC_APB1PeriphClockCmd
    bsp_uart_fifo.o(i.RS485_InitTXE) refers to stm32f10x_rcc.o(i.RCC_APB2PeriphClockCmd) for RCC_APB2PeriphClockCmd
    bsp_uart_fifo.o(i.RS485_InitTXE) refers to stm32f10x_gpio.o(i.GPIO_Init) for GPIO_Init
    bsp_uart_fifo.o(i.RS485_SendBuf) refers to bsp_uart_fifo.o(i.comSendBuf) for comSendBuf
    bsp_uart_fifo.o(i.RS485_SendStr) refers to strlen.o(.text) for strlen
    bsp_uart_fifo.o(i.RS485_SendStr) refers to bsp_uart_fifo.o(i.RS485_SendBuf) for RS485_SendBuf
    bsp_uart_fifo.o(i.UART4_IRQHandler) refers to bsp_uart_fifo.o(i.UartIRQ) for UartIRQ
    bsp_uart_fifo.o(i.UART4_IRQHandler) refers to bsp_uart_fifo.o(.bss) for g_tUart4
    bsp_uart_fifo.o(i.USART1_IRQHandler) refers to bsp_uart_fifo.o(i.UartIRQ) for UartIRQ
    bsp_uart_fifo.o(i.USART1_IRQHandler) refers to bsp_uart_fifo.o(.bss) for g_tUart1
    bsp_uart_fifo.o(i.USART2_IRQHandler) refers to bsp_uart_fifo.o(i.UartIRQ) for UartIRQ
    bsp_uart_fifo.o(i.USART2_IRQHandler) refers to bsp_uart_fifo.o(.bss) for g_tUart2
    bsp_uart_fifo.o(i.UartGetChar) refers to port.o(i.vPortEnterCritical) for vPortEnterCritical
    bsp_uart_fifo.o(i.UartGetChar) refers to port.o(i.vPortExitCritical) for vPortExitCritical
    bsp_uart_fifo.o(i.UartIRQ) refers to stm32f10x_usart.o(i.USART_GetITStatus) for USART_GetITStatus
    bsp_uart_fifo.o(i.UartIRQ) refers to stm32f10x_usart.o(i.USART_ReceiveData) for USART_ReceiveData
    bsp_uart_fifo.o(i.UartIRQ) refers to stm32f10x_usart.o(i.USART_ITConfig) for USART_ITConfig
    bsp_uart_fifo.o(i.UartIRQ) refers to stm32f10x_usart.o(i.USART_SendData) for USART_SendData
    bsp_uart_fifo.o(i.UartSend) refers to port.o(i.vPortEnterCritical) for vPortEnterCritical
    bsp_uart_fifo.o(i.UartSend) refers to port.o(i.vPortExitCritical) for vPortExitCritical
    bsp_uart_fifo.o(i.UartSend) refers to stm32f10x_usart.o(i.USART_ITConfig) for USART_ITConfig
    bsp_uart_fifo.o(i.UartVarInit) refers to bsp_uart_fifo.o(.bss) for g_tUart1
    bsp_uart_fifo.o(i.bsp_InitUart) refers to bsp_uart_fifo.o(i.UartVarInit) for UartVarInit
    bsp_uart_fifo.o(i.bsp_InitUart) refers to bsp_uart_fifo.o(i.InitHardUart) for InitHardUart
    bsp_uart_fifo.o(i.bsp_InitUart) refers to bsp_uart_fifo.o(i.RS485_InitTXE) for RS485_InitTXE
    bsp_uart_fifo.o(i.bsp_InitUart) refers to bsp_uart_fifo.o(i.ConfigUartNVIC) for ConfigUartNVIC
    bsp_uart_fifo.o(i.bsp_Set485Baud) refers to stm32f10x_usart.o(i.USART_Init) for USART_Init
    bsp_uart_fifo.o(i.bsp_SetUart1Baud) refers to stm32f10x_usart.o(i.USART_Init) for USART_Init
    bsp_uart_fifo.o(i.bsp_SetUart2Baud) refers to stm32f10x_usart.o(i.USART_Init) for USART_Init
    bsp_uart_fifo.o(i.comClearRxFifo) refers to bsp_uart_fifo.o(i.ComToUart) for ComToUart
    bsp_uart_fifo.o(i.comClearTxFifo) refers to bsp_uart_fifo.o(i.ComToUart) for ComToUart
    bsp_uart_fifo.o(i.comGetALine) refers to bsp_uart_fifo.o(i.comGetLen) for comGetLen
    bsp_uart_fifo.o(i.comGetALine) refers to bsp_uart_fifo.o(i.comGetChar) for comGetChar
    bsp_uart_fifo.o(i.comGetALine) refers to tasks.o(i.vTaskDelay) for vTaskDelay
    bsp_uart_fifo.o(i.comGetChar) refers to bsp_uart_fifo.o(i.ComToUart) for ComToUart
    bsp_uart_fifo.o(i.comGetChar) refers to bsp_uart_fifo.o(i.UartGetChar) for UartGetChar
    bsp_uart_fifo.o(i.comGetLen) refers to bsp_uart_fifo.o(i.ComToUart) for ComToUart
    bsp_uart_fifo.o(i.comSendBuf) refers to bsp_uart_fifo.o(i.ComToUart) for ComToUart
    bsp_uart_fifo.o(i.comSendBuf) refers to bsp_uart_fifo.o(i.UartSend) for UartSend
    bsp_uart_fifo.o(i.comSendChar) refers to bsp_uart_fifo.o(i.comSendBuf) for comSendBuf
    bsp_uart_fifo.o(i.comSendCharHex) refers to bsp_uart_fifo.o(i.comSendBuf) for comSendBuf
    bsp_uart_fifo.o(i.comSendCharHex) refers to bsp_uart_fifo.o(.data) for HexToCharArray
    bsp_uart_fifo.o(i.fgetc) refers to stm32f10x_usart.o(i.USART_GetFlagStatus) for USART_GetFlagStatus
    bsp_uart_fifo.o(i.fgetc) refers to stm32f10x_usart.o(i.USART_ReceiveData) for USART_ReceiveData
    bsp_uart_fifo.o(i.fputc) refers to stm32f10x_usart.o(i.USART_SendData) for USART_SendData
    bsp_uart_fifo.o(i.fputc) refers to stm32f10x_usart.o(i.USART_GetFlagStatus) for USART_GetFlagStatus
    bsp_beep.o(i.BEEP_InitHard) refers to stm32f10x_rcc.o(i.RCC_APB2PeriphClockCmd) for RCC_APB2PeriphClockCmd
    bsp_beep.o(i.BEEP_InitHard) refers to stm32f10x_gpio.o(i.GPIO_Init) for GPIO_Init
    bsp_beep.o(i.BEEP_KeyTone) refers to bsp_beep.o(i.BEEP_Start) for BEEP_Start
    bsp_beep.o(i.BEEP_Pro) refers to bsp_beep.o(.bss) for g_tBeep
    bsp_beep.o(i.BEEP_Start) refers to bsp_beep.o(.bss) for g_tBeep
    bsp_beep.o(i.BEEP_Stop) refers to bsp_beep.o(.bss) for g_tBeep
    bsp_simple_timer.o(i.TIM2_IRQHandler) refers to stm32f10x_tim.o(i.TIM_GetITStatus) for TIM_GetITStatus
    bsp_simple_timer.o(i.TIM2_IRQHandler) refers to stm32f10x_tim.o(i.TIM_ClearITPendingBit) for TIM_ClearITPendingBit
    bsp_simple_timer.o(i.TIM2_IRQHandler) refers to bsp_key.o(i.bsp_KeyScan) for bsp_KeyScan
    bsp_simple_timer.o(i.TIM2_IRQHandler) refers to stm32f10x_gpio.o(i.GPIO_ReadInputData) for GPIO_ReadInputData
    bsp_simple_timer.o(i.TIM2_IRQHandler) refers to bsp_uart_lcd.o(.data) for timer_lcd_update
    bsp_simple_timer.o(i.TIM2_IRQHandler) refers to bsp_simple_timer.o(.data) for timer_ble_netledon
    bsp_simple_timer.o(i.TIM2_IRQHandler) refers to bsp_ble.o(.bss) for Ble
    bsp_simple_timer.o(i.TIM3_IRQHandler) refers to stm32f10x_tim.o(i.TIM_GetITStatus) for TIM_GetITStatus
    bsp_simple_timer.o(i.TIM3_IRQHandler) refers to stm32f10x_tim.o(i.TIM_ClearITPendingBit) for TIM_ClearITPendingBit
    bsp_simple_timer.o(i.TIM3_IRQHandler) refers to bsp_simple_timer.o(.data) for timer_pedal_up
    bsp_simple_timer.o(i.TimeInit) refers to bsp_simple_timer.o(i.timer2_init) for timer2_init
    bsp_simple_timer.o(i.TimeInit) refers to bsp_simple_timer.o(i.timer3_init) for timer3_init
    bsp_simple_timer.o(i.timer2_init) refers to stm32f10x_rcc.o(i.RCC_APB1PeriphClockCmd) for RCC_APB1PeriphClockCmd
    bsp_simple_timer.o(i.timer2_init) refers to stm32f10x_tim.o(i.TIM_ClearITPendingBit) for TIM_ClearITPendingBit
    bsp_simple_timer.o(i.timer2_init) refers to stm32f10x_tim.o(i.TIM_TimeBaseInit) for TIM_TimeBaseInit
    bsp_simple_timer.o(i.timer2_init) refers to stm32f10x_tim.o(i.TIM_ITConfig) for TIM_ITConfig
    bsp_simple_timer.o(i.timer2_init) refers to stm32f10x_tim.o(i.TIM_Cmd) for TIM_Cmd
    bsp_simple_timer.o(i.timer2_init) refers to misc.o(i.NVIC_Init) for NVIC_Init
    bsp_simple_timer.o(i.timer3_init) refers to stm32f10x_rcc.o(i.RCC_APB1PeriphClockCmd) for RCC_APB1PeriphClockCmd
    bsp_simple_timer.o(i.timer3_init) refers to stm32f10x_tim.o(i.TIM_ClearITPendingBit) for TIM_ClearITPendingBit
    bsp_simple_timer.o(i.timer3_init) refers to stm32f10x_tim.o(i.TIM_TimeBaseInit) for TIM_TimeBaseInit
    bsp_simple_timer.o(i.timer3_init) refers to stm32f10x_tim.o(i.TIM_ITConfig) for TIM_ITConfig
    bsp_simple_timer.o(i.timer3_init) refers to stm32f10x_tim.o(i.TIM_SelectOutputTrigger) for TIM_SelectOutputTrigger
    bsp_simple_timer.o(i.timer3_init) refers to stm32f10x_tim.o(i.TIM_Cmd) for TIM_Cmd
    bsp_simple_timer.o(i.timer3_init) refers to misc.o(i.NVIC_Init) for NVIC_Init
    bsp_adc_int.o(i.ADC1_2_IRQHandler) refers to stm32f10x_adc.o(i.ADC_GetITStatus) for ADC_GetITStatus
    bsp_adc_int.o(i.ADC1_2_IRQHandler) refers to stm32f10x_adc.o(i.ADC_GetConversionValue) for ADC_GetConversionValue
    bsp_adc_int.o(i.ADC1_2_IRQHandler) refers to filter.o(i.FILTER_Push) for FILTER_Push
    bsp_adc_int.o(i.ADC1_2_IRQHandler) refers to stm32f10x_adc.o(i.ADC_ClearITPendingBit) for ADC_ClearITPendingBit
    bsp_adc_int.o(i.ADC1_GPIO_Config) refers to stm32f10x_rcc.o(i.RCC_AHBPeriphClockCmd) for RCC_AHBPeriphClockCmd
    bsp_adc_int.o(i.ADC1_GPIO_Config) refers to stm32f10x_gpio.o(i.GPIO_Init) for GPIO_Init
    bsp_adc_int.o(i.ADC1_GetV) refers to filter.o(i.FILTER_Get) for FILTER_Get
    bsp_adc_int.o(i.ADC1_GetV) refers to ffltui.o(.text) for __aeabi_ui2f
    bsp_adc_int.o(i.ADC1_GetV) refers to fdiv.o(.text) for __aeabi_fdiv
    bsp_adc_int.o(i.ADC1_GetV) refers to f2d.o(.text) for __aeabi_f2d
    bsp_adc_int.o(i.ADC1_GetV) refers to dmul.o(.text) for __aeabi_dmul
    bsp_adc_int.o(i.ADC1_GetV) refers to ddiv.o(.text) for __aeabi_ddiv
    bsp_adc_int.o(i.ADC1_GetV) refers to d2f.o(.text) for __aeabi_d2f
    bsp_adc_int.o(i.ADC1_GetV) refers to fmul.o(.text) for __aeabi_fmul
    bsp_adc_int.o(i.ADC1_GetV) refers to ffixui.o(.text) for __aeabi_f2uiz
    bsp_adc_int.o(i.ADC1_GetV) refers to printf8.o(i.__0printf$8) for __2printf
    bsp_adc_int.o(i.ADC1_GetV) refers to main.o(.bss) for Tmy
    bsp_adc_int.o(i.ADC1_InSigEnInit) refers to stm32f10x_rcc.o(i.RCC_APB2PeriphClockCmd) for RCC_APB2PeriphClockCmd
    bsp_adc_int.o(i.ADC1_InSigEnInit) refers to stm32f10x_rcc.o(i.RCC_AHBPeriphClockCmd) for RCC_AHBPeriphClockCmd
    bsp_adc_int.o(i.ADC1_InSigEnInit) refers to bsp_adc_int.o(i.ADC1_InSigEn) for ADC1_InSigEn
    bsp_adc_int.o(i.ADC1_InSigEnInit) refers to stm32f10x_gpio.o(i.GPIO_Init) for GPIO_Init
    bsp_adc_int.o(i.ADC1_Init) refers to bsp_adc_int.o(i.ADC1_InSigEnInit) for ADC1_InSigEnInit
    bsp_adc_int.o(i.ADC1_Init) refers to bsp_adc_int.o(i.ADC1_GPIO_Config) for ADC1_GPIO_Config
    bsp_adc_int.o(i.ADC1_Init) refers to bsp_adc_int.o(i.ADC1_Mode_Config) for ADC1_Mode_Config
    bsp_adc_int.o(i.ADC1_Init) refers to bsp_adc_int.o(i.ADC_NVIC_Config) for ADC_NVIC_Config
    bsp_adc_int.o(i.ADC1_Init) refers to filter.o(i.FILTER_Clear) for FILTER_Clear
    bsp_adc_int.o(i.ADC1_Mode_Config) refers to stm32f10x_rcc.o(i.RCC_APB2PeriphClockCmd) for RCC_APB2PeriphClockCmd
    bsp_adc_int.o(i.ADC1_Mode_Config) refers to stm32f10x_adc.o(i.ADC_Init) for ADC_Init
    bsp_adc_int.o(i.ADC1_Mode_Config) refers to stm32f10x_adc.o(i.ADC_RegularChannelConfig) for ADC_RegularChannelConfig
    bsp_adc_int.o(i.ADC1_Mode_Config) refers to stm32f10x_adc.o(i.ADC_Cmd) for ADC_Cmd
    bsp_adc_int.o(i.ADC1_Mode_Config) refers to stm32f10x_adc.o(i.ADC_ITConfig) for ADC_ITConfig
    bsp_adc_int.o(i.ADC1_Mode_Config) refers to stm32f10x_adc.o(i.ADC_ResetCalibration) for ADC_ResetCalibration
    bsp_adc_int.o(i.ADC1_Mode_Config) refers to stm32f10x_adc.o(i.ADC_GetResetCalibrationStatus) for ADC_GetResetCalibrationStatus
    bsp_adc_int.o(i.ADC1_Mode_Config) refers to stm32f10x_adc.o(i.ADC_StartCalibration) for ADC_StartCalibration
    bsp_adc_int.o(i.ADC1_Mode_Config) refers to stm32f10x_adc.o(i.ADC_GetCalibrationStatus) for ADC_GetCalibrationStatus
    bsp_adc_int.o(i.ADC1_Mode_Config) refers to stm32f10x_adc.o(i.ADC_SoftwareStartConvCmd) for ADC_SoftwareStartConvCmd
    bsp_adc_int.o(i.ADC_NVIC_Config) refers to misc.o(i.NVIC_Init) for NVIC_Init
    bsp_dwt.o(i.delay_ms) refers to bsp_dwt.o(i.delay_us) for delay_us
    bsp_ble.o(i.BLE_CheckState) refers to stm32f10x_gpio.o(i.GPIO_ReadInputData) for GPIO_ReadInputData
    bsp_ble.o(i.BLE_CheckState) refers to bsp_ble.o(.bss) for Ble
    bsp_ble.o(i.BLE_GetMsg) refers to bsp_uart_fifo.o(i.comGetLen) for comGetLen
    bsp_ble.o(i.BLE_GetMsg) refers to bsp_uart_fifo.o(i.comGetChar) for comGetChar
    bsp_ble.o(i.BLE_GetMsg) refers to tasks.o(i.vTaskDelay) for vTaskDelay
    bsp_ble.o(i.BLE_GetMsg) refers to bsp_ble.o(.bss) for Ble
    bsp_ble.o(i.BLE_HwReset) refers to debug.o(i.debug_ble) for debug_ble
    bsp_ble.o(i.BLE_HwReset) refers to tasks.o(i.vTaskDelay) for vTaskDelay
    bsp_ble.o(i.BLE_Init) refers to bsp_ble.o(i.BLE_IoInit) for BLE_IoInit
    bsp_ble.o(i.BLE_Init) refers to bsp_ble.o(i.BLE_VarInit) for BLE_VarInit
    bsp_ble.o(i.BLE_IoInit) refers to stm32f10x_rcc.o(i.RCC_APB2PeriphClockCmd) for RCC_APB2PeriphClockCmd
    bsp_ble.o(i.BLE_IoInit) refers to stm32f10x_gpio.o(i.GPIO_Init) for GPIO_Init
    bsp_ble.o(i.BLE_IoInit) refers to stm32f10x_gpio.o(i.GPIO_SetBits) for GPIO_SetBits
    bsp_ble.o(i.BLE_PapaInit) refers to tasks.o(i.vTaskDelay) for vTaskDelay
    bsp_ble.o(i.BLE_PapaInit) refers to bsp_ble.o(i.ble_cmd) for ble_cmd
    bsp_ble.o(i.BLE_PapaInit) refers to printf8.o(i.__0sprintf$8) for __2sprintf
    bsp_ble.o(i.BLE_PapaInit) refers to bsp_ble.o(i.ble_get_mac) for ble_get_mac
    bsp_ble.o(i.BLE_PapaInit) refers to bsp_ble.o(.bss) for Ble
    bsp_ble.o(i.BLE_ReportState) refers to bsp_ble.o(i.BLE_Send) for BLE_Send
    bsp_ble.o(i.BLE_ReportState) refers to bsp_ble.o(.bss) for BLE_TxBuf
    bsp_ble.o(i.BLE_Send) refers to bsp_uart_fifo.o(i.comSendBuf) for comSendBuf
    bsp_ble.o(i.BLE_Sleep) refers to tasks.o(i.vTaskDelay) for vTaskDelay
    bsp_ble.o(i.BLE_Sleep) refers to bsp_ble.o(i.ble_cmd) for ble_cmd
    bsp_ble.o(i.BLE_Sleep) refers to bsp_ble.o(i.BLE_WakeUp) for BLE_WakeUp
    bsp_ble.o(i.BLE_Sleep) refers to bsp_ble.o(i.BLE_HwReset) for BLE_HwReset
    bsp_ble.o(i.BLE_Sleep) refers to bsp_ble.o(.bss) for Ble
    bsp_ble.o(i.BLE_VarInit) refers to bsp_ble.o(.bss) for Ble
    bsp_ble.o(i.BLE_WakeUp) refers to debug.o(i.debug_ble) for debug_ble
    bsp_ble.o(i.BLE_WakeUp) refers to tasks.o(i.vTaskDelay) for vTaskDelay
    bsp_ble.o(i.BLE_WakeUp) refers to bsp_ble.o(i.ble_wait_ack) for ble_wait_ack
    bsp_ble.o(i.ble_cmd) refers to strlen.o(.text) for strlen
    bsp_ble.o(i.ble_cmd) refers to bsp_uart_fifo.o(i.comSendBuf) for comSendBuf
    bsp_ble.o(i.ble_cmd) refers to debug.o(i.debug_ble) for debug_ble
    bsp_ble.o(i.ble_cmd) refers to tasks.o(i.vTaskDelay) for vTaskDelay
    bsp_ble.o(i.ble_cmd) refers to bsp_uart_fifo.o(i.comGetALine) for comGetALine
    bsp_ble.o(i.ble_cmd) refers to strstr.o(.text) for strstr
    bsp_ble.o(i.ble_cmd) refers to bsp_uart_fifo.o(i.comClearRxFifo) for comClearRxFifo
    bsp_ble.o(i.ble_cmd) refers to bsp_ble.o(.bss) for BLE_RxBuf
    bsp_ble.o(i.ble_get_mac) refers to bsp_uart_fifo.o(i.comSendBuf) for comSendBuf
    bsp_ble.o(i.ble_get_mac) refers to debug.o(i.debug_ble) for debug_ble
    bsp_ble.o(i.ble_get_mac) refers to tasks.o(i.vTaskDelay) for vTaskDelay
    bsp_ble.o(i.ble_get_mac) refers to bsp_uart_fifo.o(i.comGetALine) for comGetALine
    bsp_ble.o(i.ble_get_mac) refers to strstr.o(.text) for strstr
    bsp_ble.o(i.ble_get_mac) refers to bsp_uart_fifo.o(i.comClearRxFifo) for comClearRxFifo
    bsp_ble.o(i.ble_get_mac) refers to bsp_ble.o(.bss) for BLE_RxBuf
    bsp_ble.o(i.ble_get_token) refers to rand.o(.text) for srand
    bsp_ble.o(i.ble_get_token) refers to debug.o(i.debug_usr) for debug_usr
    bsp_ble.o(i.ble_get_token) refers to filter.o(.bss) for FilterTem
    bsp_ble.o(i.ble_wait_ack) refers to bsp_uart_fifo.o(i.comGetALine) for comGetALine
    bsp_ble.o(i.ble_wait_ack) refers to debug.o(i.debug_ble) for debug_ble
    bsp_ble.o(i.ble_wait_ack) refers to strstr.o(.text) for strstr
    bsp_ble.o(i.ble_wait_ack) refers to bsp_uart_fifo.o(i.comClearRxFifo) for comClearRxFifo
    bsp_ble.o(i.ble_wait_ack) refers to tasks.o(i.vTaskDelay) for vTaskDelay
    bsp_ble.o(i.ble_wait_ack) refers to bsp_ble.o(.bss) for BLE_RxBuf
    cmd_queue.o(i.queue_find_cmd) refers to bsp_uart_fifo.o(i.comGetChar) for comGetChar
    cmd_queue.o(i.queue_find_cmd) refers to tasks.o(i.vTaskDelay) for vTaskDelay
    cmd_queue.o(i.queue_find_cmd) refers to bsp_uart_fifo.o(i.comGetLen) for comGetLen
    hmi_driver.o(i.AnimationPause) refers to hmi_user_uart.o(i.SendChar) for SendChar
    hmi_driver.o(i.AnimationPlayFrame) refers to hmi_user_uart.o(i.SendChar) for SendChar
    hmi_driver.o(i.AnimationPlayNext) refers to hmi_user_uart.o(i.SendChar) for SendChar
    hmi_driver.o(i.AnimationPlayPrev) refers to hmi_user_uart.o(i.SendChar) for SendChar
    hmi_driver.o(i.AnimationStart) refers to hmi_user_uart.o(i.SendChar) for SendChar
    hmi_driver.o(i.AnimationStop) refers to hmi_user_uart.o(i.SendChar) for SendChar
    hmi_driver.o(i.BatchBegin) refers to hmi_user_uart.o(i.SendChar) for SendChar
    hmi_driver.o(i.BatchEnd) refers to hmi_user_uart.o(i.SendChar) for SendChar
    hmi_driver.o(i.BatchSetButtonValue) refers to hmi_user_uart.o(i.SendChar) for SendChar
    hmi_driver.o(i.BatchSetEnable) refers to hmi_user_uart.o(i.SendChar) for SendChar
    hmi_driver.o(i.BatchSetFrame) refers to hmi_user_uart.o(i.SendChar) for SendChar
    hmi_driver.o(i.BatchSetMeterValue) refers to hmi_user_uart.o(i.SendChar) for SendChar
    hmi_driver.o(i.BatchSetProgressValue) refers to hmi_user_uart.o(i.SendChar) for SendChar
    hmi_driver.o(i.BatchSetSliderValue) refers to hmi_user_uart.o(i.SendChar) for SendChar
    hmi_driver.o(i.BatchSetText) refers to hmi_user_uart.o(i.SendChar) for SendChar
    hmi_driver.o(i.BatchSetText) refers to hmi_driver.o(i.GetStringLen) for GetStringLen
    hmi_driver.o(i.BatchSetText) refers to hmi_driver.o(i.SendStrings) for SendStrings
    hmi_driver.o(i.BatchSetVisible) refers to hmi_user_uart.o(i.SendChar) for SendChar
    hmi_driver.o(i.CalibrateTouchPane) refers to hmi_user_uart.o(i.SendChar) for SendChar
    hmi_driver.o(i.ClearLayer) refers to hmi_user_uart.o(i.SendChar) for SendChar
    hmi_driver.o(i.ColorPicker) refers to hmi_user_uart.o(i.SendChar) for SendChar
    hmi_driver.o(i.CopyLayer) refers to hmi_user_uart.o(i.SendChar) for SendChar
    hmi_driver.o(i.DisArea_Image) refers to hmi_user_uart.o(i.SendChar) for SendChar
    hmi_driver.o(i.DisCursor) refers to hmi_user_uart.o(i.SendChar) for SendChar
    hmi_driver.o(i.DisCut_Image) refers to hmi_user_uart.o(i.SendChar) for SendChar
    hmi_driver.o(i.DisFlashImage) refers to hmi_user_uart.o(i.SendChar) for SendChar
    hmi_driver.o(i.DisFull_Image) refers to hmi_user_uart.o(i.SendChar) for SendChar
    hmi_driver.o(i.DisText) refers to hmi_user_uart.o(i.SendChar) for SendChar
    hmi_driver.o(i.DisText) refers to hmi_driver.o(i.SendStrings) for SendStrings
    hmi_driver.o(i.DisplyLayer) refers to hmi_user_uart.o(i.SendChar) for SendChar
    hmi_driver.o(i.FlashBeginSaveControl) refers to hmi_user_uart.o(i.SendChar) for SendChar
    hmi_driver.o(i.FlashEndSaveControl) refers to hmi_user_uart.o(i.SendChar) for SendChar
    hmi_driver.o(i.FlashRestoreControl) refers to hmi_user_uart.o(i.SendChar) for SendChar
    hmi_driver.o(i.FlashSaveControl) refers to hmi_user_uart.o(i.SendChar) for SendChar
    hmi_driver.o(i.GUI_Arc) refers to hmi_user_uart.o(i.SendChar) for SendChar
    hmi_driver.o(i.GUI_AreaInycolor) refers to hmi_user_uart.o(i.SendChar) for SendChar
    hmi_driver.o(i.GUI_BcolorConDots) refers to hmi_user_uart.o(i.SendChar) for SendChar
    hmi_driver.o(i.GUI_BcolorConDots) refers to hmi_driver.o(i.SendNU16) for SendNU16
    hmi_driver.o(i.GUI_BcolorConOffsetDots) refers to hmi_user_uart.o(i.SendChar) for SendChar
    hmi_driver.o(i.GUI_BcolorConOffsetDots) refers to hmi_driver.o(i.SendNU16) for SendNU16
    hmi_driver.o(i.GUI_Circle) refers to hmi_user_uart.o(i.SendChar) for SendChar
    hmi_driver.o(i.GUI_CircleFill) refers to hmi_user_uart.o(i.SendChar) for SendChar
    hmi_driver.o(i.GUI_CleanScreen) refers to hmi_user_uart.o(i.SendChar) for SendChar
    hmi_driver.o(i.GUI_ConDots) refers to hmi_user_uart.o(i.SendChar) for SendChar
    hmi_driver.o(i.GUI_ConDots) refers to hmi_driver.o(i.SendNU16) for SendNU16
    hmi_driver.o(i.GUI_ConSpaceDots) refers to hmi_user_uart.o(i.SendChar) for SendChar
    hmi_driver.o(i.GUI_ConSpaceDots) refers to hmi_driver.o(i.SendNU16) for SendNU16
    hmi_driver.o(i.GUI_DispRTC) refers to hmi_user_uart.o(i.SendChar) for SendChar
    hmi_driver.o(i.GUI_Dot) refers to hmi_user_uart.o(i.SendChar) for SendChar
    hmi_driver.o(i.GUI_Ellipse) refers to hmi_user_uart.o(i.SendChar) for SendChar
    hmi_driver.o(i.GUI_EllipseFill) refers to hmi_user_uart.o(i.SendChar) for SendChar
    hmi_driver.o(i.GUI_FcolorConDots) refers to hmi_user_uart.o(i.SendChar) for SendChar
    hmi_driver.o(i.GUI_FcolorConDots) refers to hmi_driver.o(i.SendNU16) for SendNU16
    hmi_driver.o(i.GUI_FcolorConOffsetDots) refers to hmi_user_uart.o(i.SendChar) for SendChar
    hmi_driver.o(i.GUI_FcolorConOffsetDots) refers to hmi_driver.o(i.SendNU16) for SendNU16
    hmi_driver.o(i.GUI_Line) refers to hmi_user_uart.o(i.SendChar) for SendChar
    hmi_driver.o(i.GUI_Rectangle) refers to hmi_user_uart.o(i.SendChar) for SendChar
    hmi_driver.o(i.GUI_RectangleFill) refers to hmi_user_uart.o(i.SendChar) for SendChar
    hmi_driver.o(i.GetControlValue) refers to hmi_user_uart.o(i.SendChar) for SendChar
    hmi_driver.o(i.GetScreen) refers to hmi_user_uart.o(i.SendChar) for SendChar
    hmi_driver.o(i.GraphChannelAdd) refers to hmi_user_uart.o(i.SendChar) for SendChar
    hmi_driver.o(i.GraphChannelDataAdd) refers to hmi_user_uart.o(i.SendChar) for SendChar
    hmi_driver.o(i.GraphChannelDataAdd) refers to hmi_driver.o(i.SendNU8) for SendNU8
    hmi_driver.o(i.GraphChannelDataClear) refers to hmi_user_uart.o(i.SendChar) for SendChar
    hmi_driver.o(i.GraphChannelDel) refers to hmi_user_uart.o(i.SendChar) for SendChar
    hmi_driver.o(i.GraphSetViewport) refers to hmi_user_uart.o(i.SendChar) for SendChar
    hmi_driver.o(i.HistoryGraph_EnableSampling) refers to hmi_user_uart.o(i.SendChar) for SendChar
    hmi_driver.o(i.HistoryGraph_SetTimeFullScreen) refers to hmi_user_uart.o(i.SendChar) for SendChar
    hmi_driver.o(i.HistoryGraph_SetTimeLength) refers to hmi_user_uart.o(i.SendChar) for SendChar
    hmi_driver.o(i.HistoryGraph_SetTimeZoom) refers to hmi_user_uart.o(i.SendChar) for SendChar
    hmi_driver.o(i.HistoryGraph_SetValueFloat) refers to hmi_user_uart.o(i.SendChar) for SendChar
    hmi_driver.o(i.HistoryGraph_SetValueInt16) refers to hmi_user_uart.o(i.SendChar) for SendChar
    hmi_driver.o(i.HistoryGraph_SetValueInt16) refers to hmi_driver.o(i.SendNU16) for SendNU16
    hmi_driver.o(i.HistoryGraph_SetValueInt32) refers to hmi_user_uart.o(i.SendChar) for SendChar
    hmi_driver.o(i.HistoryGraph_SetValueInt8) refers to hmi_user_uart.o(i.SendChar) for SendChar
    hmi_driver.o(i.HistoryGraph_SetValueInt8) refers to hmi_driver.o(i.SendNU8) for SendNU8
    hmi_driver.o(i.HistoryGraph_ShowChannel) refers to hmi_user_uart.o(i.SendChar) for SendChar
    hmi_driver.o(i.LockDeviceConfig) refers to hmi_user_uart.o(i.SendChar) for SendChar
    hmi_driver.o(i.PauseTimer) refers to hmi_user_uart.o(i.SendChar) for SendChar
    hmi_driver.o(i.PlayMusic) refers to hmi_user_uart.o(i.SendChar) for SendChar
    hmi_driver.o(i.ReadRTC) refers to hmi_user_uart.o(i.SendChar) for SendChar
    hmi_driver.o(i.ReadUserFlash) refers to hmi_user_uart.o(i.SendChar) for SendChar
    hmi_driver.o(i.Record_Add) refers to hmi_user_uart.o(i.SendChar) for SendChar
    hmi_driver.o(i.Record_Add) refers to hmi_driver.o(i.SendStrings) for SendStrings
    hmi_driver.o(i.Record_Clear) refers to hmi_user_uart.o(i.SendChar) for SendChar
    hmi_driver.o(i.Record_GetCount) refers to hmi_user_uart.o(i.SendChar) for SendChar
    hmi_driver.o(i.Record_ResetEvent) refers to hmi_user_uart.o(i.SendChar) for SendChar
    hmi_driver.o(i.Record_SetEvent) refers to hmi_user_uart.o(i.SendChar) for SendChar
    hmi_driver.o(i.Record_SetOffset) refers to hmi_user_uart.o(i.SendChar) for SendChar
    hmi_driver.o(i.SeTimer) refers to hmi_user_uart.o(i.SendChar) for SendChar
    hmi_driver.o(i.SendNU16) refers to hmi_user_uart.o(i.SendChar) for SendChar
    hmi_driver.o(i.SendNU8) refers to hmi_user_uart.o(i.SendChar) for SendChar
    hmi_driver.o(i.SendStrings) refers to hmi_user_uart.o(i.SendChar) for SendChar
    hmi_driver.o(i.SetBackLight) refers to hmi_user_uart.o(i.SendChar) for SendChar
    hmi_driver.o(i.SetBcolor) refers to hmi_user_uart.o(i.SendChar) for SendChar
    hmi_driver.o(i.SetButtonValue) refers to hmi_user_uart.o(i.SendChar) for SendChar
    hmi_driver.o(i.SetBuzzer) refers to hmi_user_uart.o(i.SendChar) for SendChar
    hmi_driver.o(i.SetCommBps) refers to hmi_user_uart.o(i.SendChar) for SendChar
    hmi_driver.o(i.SetControlBackColor) refers to hmi_user_uart.o(i.SendChar) for SendChar
    hmi_driver.o(i.SetControlEnable) refers to hmi_user_uart.o(i.SendChar) for SendChar
    hmi_driver.o(i.SetControlFocus) refers to hmi_user_uart.o(i.SendChar) for SendChar
    hmi_driver.o(i.SetControlForeColor) refers to hmi_user_uart.o(i.SendChar) for SendChar
    hmi_driver.o(i.SetControlVisiable) refers to hmi_user_uart.o(i.SendChar) for SendChar
    hmi_driver.o(i.SetFcolor) refers to hmi_user_uart.o(i.SendChar) for SendChar
    hmi_driver.o(i.SetFilterColor) refers to hmi_user_uart.o(i.SendChar) for SendChar
    hmi_driver.o(i.SetFont_Region) refers to hmi_user_uart.o(i.SendChar) for SendChar
    hmi_driver.o(i.SetHandShake) refers to hmi_user_uart.o(i.SendChar) for SendChar
    hmi_driver.o(i.SetLanguage) refers to hmi_user_uart.o(i.SendChar) for SendChar
    hmi_driver.o(i.SetMeterValue) refers to hmi_user_uart.o(i.SendChar) for SendChar
    hmi_driver.o(i.SetPowerSaving) refers to hmi_user_uart.o(i.SendChar) for SendChar
    hmi_driver.o(i.SetProgressValue) refers to hmi_user_uart.o(i.SendChar) for SendChar
    hmi_driver.o(i.SetScreen) refers to hmi_user_uart.o(i.SendChar) for SendChar
    hmi_driver.o(i.SetScreenUpdateEnable) refers to hmi_user_uart.o(i.SendChar) for SendChar
    hmi_driver.o(i.SetSelectorValue) refers to hmi_user_uart.o(i.SendChar) for SendChar
    hmi_driver.o(i.SetSliderValue) refers to hmi_user_uart.o(i.SendChar) for SendChar
    hmi_driver.o(i.SetTextFloat) refers to hmi_user_uart.o(i.SendChar) for SendChar
    hmi_driver.o(i.SetTextInt32) refers to hmi_user_uart.o(i.SendChar) for SendChar
    hmi_driver.o(i.SetTextSpace) refers to hmi_user_uart.o(i.SendChar) for SendChar
    hmi_driver.o(i.SetTextValue) refers to hmi_user_uart.o(i.SendChar) for SendChar
    hmi_driver.o(i.SetTextValue) refers to hmi_driver.o(i.SendStrings) for SendStrings
    hmi_driver.o(i.SetTouchPaneOption) refers to hmi_user_uart.o(i.SendChar) for SendChar
    hmi_driver.o(i.Set_picMeterValue) refers to hmi_user_uart.o(i.SendChar) for SendChar
    hmi_driver.o(i.ShowKeyboard) refers to hmi_user_uart.o(i.SendChar) for SendChar
    hmi_driver.o(i.ShowPopupMenu) refers to hmi_user_uart.o(i.SendChar) for SendChar
    hmi_driver.o(i.StartTimer) refers to hmi_user_uart.o(i.SendChar) for SendChar
    hmi_driver.o(i.StopTimer) refers to hmi_user_uart.o(i.SendChar) for SendChar
    hmi_driver.o(i.TestTouchPane) refers to hmi_user_uart.o(i.SendChar) for SendChar
    hmi_driver.o(i.UnlockDeviceConfig) refers to hmi_user_uart.o(i.SendChar) for SendChar
    hmi_driver.o(i.WriteLayer) refers to hmi_user_uart.o(i.SendChar) for SendChar
    hmi_driver.o(i.WriteUserFlash) refers to hmi_user_uart.o(i.SendChar) for SendChar
    hmi_driver.o(i.WriteUserFlash) refers to hmi_driver.o(i.SendNU8) for SendNU8
    hmi_user_uart.o(i.SendChar) refers to bsp_uart_fifo.o(i.comSendBuf) for comSendBuf
    ulitity.o(i.systicket_init) refers to misc.o(i.SysTick_CLKSourceConfig) for SysTick_CLKSourceConfig
    hw_config.o(i.Interrupts_Config) refers to misc.o(i.NVIC_PriorityGroupConfig) for NVIC_PriorityGroupConfig
    hw_config.o(i.Interrupts_Config) refers to misc.o(i.NVIC_Init) for NVIC_Init
    hw_config.o(i.Set_System) refers to stm32f10x_rcc.o(i.RCC_DeInit) for RCC_DeInit
    hw_config.o(i.Set_System) refers to stm32f10x_rcc.o(i.RCC_HSICmd) for RCC_HSICmd
    hw_config.o(i.Set_System) refers to stm32f10x_rcc.o(i.RCC_GetFlagStatus) for RCC_GetFlagStatus
    hw_config.o(i.Set_System) refers to stm32f10x_flash.o(i.FLASH_PrefetchBufferCmd) for FLASH_PrefetchBufferCmd
    hw_config.o(i.Set_System) refers to stm32f10x_flash.o(i.FLASH_SetLatency) for FLASH_SetLatency
    hw_config.o(i.Set_System) refers to stm32f10x_rcc.o(i.RCC_HCLKConfig) for RCC_HCLKConfig
    hw_config.o(i.Set_System) refers to stm32f10x_rcc.o(i.RCC_PCLK2Config) for RCC_PCLK2Config
    hw_config.o(i.Set_System) refers to stm32f10x_rcc.o(i.RCC_PCLK1Config) for RCC_PCLK1Config
    hw_config.o(i.Set_System) refers to stm32f10x_rcc.o(i.RCC_PLLConfig) for RCC_PLLConfig
    hw_config.o(i.Set_System) refers to stm32f10x_rcc.o(i.RCC_PLLCmd) for RCC_PLLCmd
    hw_config.o(i.Set_System) refers to stm32f10x_rcc.o(i.RCC_SYSCLKConfig) for RCC_SYSCLKConfig
    hw_config.o(i.Set_System) refers to stm32f10x_rcc.o(i.RCC_GetSYSCLKSource) for RCC_GetSYSCLKSource
    hx711.o(i.HX711_Init) refers to stm32f10x_gpio.o(i.GPIO_Init) for GPIO_Init
    hx711.o(i.HX711_Read) refers to stm32f10x_gpio.o(i.GPIO_SetBits) for GPIO_SetBits
    hx711.o(i.HX711_Read) refers to stm32f10x_gpio.o(i.GPIO_ResetBits) for GPIO_ResetBits
    hx711.o(i.HX711_Read) refers to stm32f10x_gpio.o(i.GPIO_ReadInputDataBit) for GPIO_ReadInputDataBit
    hx711.o(i.HX711_Read) refers to bsp_dwt.o(i.delay_us) for delay_us
    hx711.o(i.PRE_Adjust) refers to save2flash.o(i.SaveToFlash) for SaveToFlash
    hx711.o(i.PRE_Adjust) refers to hx711.o(.bss) for PressureTable
    hx711.o(i.PRE_Adjust) refers to save2flash.o(.bss) for data_saved
    hx711.o(i.PRE_GetLevel) refers to hx711.o(.bss) for PressureTable
    startup_stm32f10x_hd.o(RESET) refers to startup_stm32f10x_hd.o(STACK) for __initial_sp
    startup_stm32f10x_hd.o(RESET) refers to startup_stm32f10x_hd.o(.text) for Reset_Handler
    startup_stm32f10x_hd.o(RESET) refers to stm32f10x_it.o(i.NMI_Handler) for NMI_Handler
    startup_stm32f10x_hd.o(RESET) refers to stm32f10x_it.o(i.HardFault_Handler) for HardFault_Handler
    startup_stm32f10x_hd.o(RESET) refers to stm32f10x_it.o(i.MemManage_Handler) for MemManage_Handler
    startup_stm32f10x_hd.o(RESET) refers to stm32f10x_it.o(i.BusFault_Handler) for BusFault_Handler
    startup_stm32f10x_hd.o(RESET) refers to stm32f10x_it.o(i.UsageFault_Handler) for UsageFault_Handler
    startup_stm32f10x_hd.o(RESET) refers to port.o(.emb_text) for SVC_Handler
    startup_stm32f10x_hd.o(RESET) refers to stm32f10x_it.o(i.DebugMon_Handler) for DebugMon_Handler
    startup_stm32f10x_hd.o(RESET) refers to port.o(i.SysTick_Handler) for SysTick_Handler
    startup_stm32f10x_hd.o(RESET) refers to bsp_adc_int.o(i.ADC1_2_IRQHandler) for ADC1_2_IRQHandler
    startup_stm32f10x_hd.o(RESET) refers to bsp_motor.o(i.TIM1_UP_IRQHandler) for TIM1_UP_IRQHandler
    startup_stm32f10x_hd.o(RESET) refers to bsp_simple_timer.o(i.TIM2_IRQHandler) for TIM2_IRQHandler
    startup_stm32f10x_hd.o(RESET) refers to bsp_simple_timer.o(i.TIM3_IRQHandler) for TIM3_IRQHandler
    startup_stm32f10x_hd.o(RESET) refers to bsp_uart_fifo.o(i.USART1_IRQHandler) for USART1_IRQHandler
    startup_stm32f10x_hd.o(RESET) refers to bsp_uart_fifo.o(i.USART2_IRQHandler) for USART2_IRQHandler
    startup_stm32f10x_hd.o(RESET) refers to bsp_uart_fifo.o(i.UART4_IRQHandler) for UART4_IRQHandler
    startup_stm32f10x_hd.o(.text) refers to system_stm32f10x.o(i.SystemInit) for SystemInit
    startup_stm32f10x_hd.o(.text) refers to entry.o(.ARM.Collect$$$$00000000) for __main
    stm32f10x_gpio.o(i.GPIO_AFIODeInit) refers to stm32f10x_rcc.o(i.RCC_APB2PeriphResetCmd) for RCC_APB2PeriphResetCmd
    stm32f10x_gpio.o(i.GPIO_DeInit) refers to stm32f10x_rcc.o(i.RCC_APB2PeriphResetCmd) for RCC_APB2PeriphResetCmd
    stm32f10x_rcc.o(i.RCC_GetClocksFreq) refers to stm32f10x_rcc.o(.data) for APBAHBPrescTable
    stm32f10x_rcc.o(i.RCC_WaitForHSEStartUp) refers to stm32f10x_rcc.o(i.RCC_GetFlagStatus) for RCC_GetFlagStatus
    stm32f10x_usart.o(i.USART_DeInit) refers to stm32f10x_rcc.o(i.RCC_APB2PeriphResetCmd) for RCC_APB2PeriphResetCmd
    stm32f10x_usart.o(i.USART_DeInit) refers to stm32f10x_rcc.o(i.RCC_APB1PeriphResetCmd) for RCC_APB1PeriphResetCmd
    stm32f10x_usart.o(i.USART_Init) refers to stm32f10x_rcc.o(i.RCC_GetClocksFreq) for RCC_GetClocksFreq
    stm32f10x_flash.o(i.FLASH_EnableWriteProtection) refers to stm32f10x_flash.o(i.FLASH_WaitForLastOperation) for FLASH_WaitForLastOperation
    stm32f10x_flash.o(i.FLASH_EraseAllBank1Pages) refers to stm32f10x_flash.o(i.FLASH_WaitForLastBank1Operation) for FLASH_WaitForLastBank1Operation
    stm32f10x_flash.o(i.FLASH_EraseAllPages) refers to stm32f10x_flash.o(i.FLASH_WaitForLastOperation) for FLASH_WaitForLastOperation
    stm32f10x_flash.o(i.FLASH_EraseOptionBytes) refers to stm32f10x_flash.o(i.FLASH_GetReadOutProtectionStatus) for FLASH_GetReadOutProtectionStatus
    stm32f10x_flash.o(i.FLASH_EraseOptionBytes) refers to stm32f10x_flash.o(i.FLASH_WaitForLastOperation) for FLASH_WaitForLastOperation
    stm32f10x_flash.o(i.FLASH_ErasePage) refers to stm32f10x_flash.o(i.FLASH_WaitForLastOperation) for FLASH_WaitForLastOperation
    stm32f10x_flash.o(i.FLASH_ProgramHalfWord) refers to stm32f10x_flash.o(i.FLASH_WaitForLastOperation) for FLASH_WaitForLastOperation
    stm32f10x_flash.o(i.FLASH_ProgramOptionByteData) refers to stm32f10x_flash.o(i.FLASH_WaitForLastOperation) for FLASH_WaitForLastOperation
    stm32f10x_flash.o(i.FLASH_ProgramWord) refers to stm32f10x_flash.o(i.FLASH_WaitForLastOperation) for FLASH_WaitForLastOperation
    stm32f10x_flash.o(i.FLASH_ReadOutProtection) refers to stm32f10x_flash.o(i.FLASH_WaitForLastOperation) for FLASH_WaitForLastOperation
    stm32f10x_flash.o(i.FLASH_UserOptionByteConfig) refers to stm32f10x_flash.o(i.FLASH_WaitForLastOperation) for FLASH_WaitForLastOperation
    stm32f10x_flash.o(i.FLASH_WaitForLastBank1Operation) refers to stm32f10x_flash.o(i.FLASH_GetBank1Status) for FLASH_GetBank1Status
    stm32f10x_flash.o(i.FLASH_WaitForLastOperation) refers to stm32f10x_flash.o(i.FLASH_GetBank1Status) for FLASH_GetBank1Status
    stm32f10x_tim.o(i.TIM_DeInit) refers to stm32f10x_rcc.o(i.RCC_APB2PeriphResetCmd) for RCC_APB2PeriphResetCmd
    stm32f10x_tim.o(i.TIM_DeInit) refers to stm32f10x_rcc.o(i.RCC_APB1PeriphResetCmd) for RCC_APB1PeriphResetCmd
    stm32f10x_tim.o(i.TIM_ETRClockMode1Config) refers to stm32f10x_tim.o(i.TIM_ETRConfig) for TIM_ETRConfig
    stm32f10x_tim.o(i.TIM_ETRClockMode2Config) refers to stm32f10x_tim.o(i.TIM_ETRConfig) for TIM_ETRConfig
    stm32f10x_tim.o(i.TIM_ICInit) refers to stm32f10x_tim.o(i.TI1_Config) for TI1_Config
    stm32f10x_tim.o(i.TIM_ICInit) refers to stm32f10x_tim.o(i.TIM_SetIC1Prescaler) for TIM_SetIC1Prescaler
    stm32f10x_tim.o(i.TIM_ICInit) refers to stm32f10x_tim.o(i.TI2_Config) for TI2_Config
    stm32f10x_tim.o(i.TIM_ICInit) refers to stm32f10x_tim.o(i.TIM_SetIC2Prescaler) for TIM_SetIC2Prescaler
    stm32f10x_tim.o(i.TIM_ICInit) refers to stm32f10x_tim.o(i.TI3_Config) for TI3_Config
    stm32f10x_tim.o(i.TIM_ICInit) refers to stm32f10x_tim.o(i.TIM_SetIC3Prescaler) for TIM_SetIC3Prescaler
    stm32f10x_tim.o(i.TIM_ICInit) refers to stm32f10x_tim.o(i.TI4_Config) for TI4_Config
    stm32f10x_tim.o(i.TIM_ICInit) refers to stm32f10x_tim.o(i.TIM_SetIC4Prescaler) for TIM_SetIC4Prescaler
    stm32f10x_tim.o(i.TIM_ITRxExternalClockConfig) refers to stm32f10x_tim.o(i.TIM_SelectInputTrigger) for TIM_SelectInputTrigger
    stm32f10x_tim.o(i.TIM_PWMIConfig) refers to stm32f10x_tim.o(i.TI1_Config) for TI1_Config
    stm32f10x_tim.o(i.TIM_PWMIConfig) refers to stm32f10x_tim.o(i.TIM_SetIC1Prescaler) for TIM_SetIC1Prescaler
    stm32f10x_tim.o(i.TIM_PWMIConfig) refers to stm32f10x_tim.o(i.TI2_Config) for TI2_Config
    stm32f10x_tim.o(i.TIM_PWMIConfig) refers to stm32f10x_tim.o(i.TIM_SetIC2Prescaler) for TIM_SetIC2Prescaler
    stm32f10x_tim.o(i.TIM_TIxExternalClockConfig) refers to stm32f10x_tim.o(i.TI2_Config) for TI2_Config
    stm32f10x_tim.o(i.TIM_TIxExternalClockConfig) refers to stm32f10x_tim.o(i.TI1_Config) for TI1_Config
    stm32f10x_tim.o(i.TIM_TIxExternalClockConfig) refers to stm32f10x_tim.o(i.TIM_SelectInputTrigger) for TIM_SelectInputTrigger
    stm32f10x_adc.o(i.ADC_DeInit) refers to stm32f10x_rcc.o(i.RCC_APB2PeriphResetCmd) for RCC_APB2PeriphResetCmd
    system_stm32f10x.o(i.SetSysClock) refers to system_stm32f10x.o(i.SetSysClockTo72) for SetSysClockTo72
    system_stm32f10x.o(i.SystemCoreClockUpdate) refers to system_stm32f10x.o(.data) for SystemCoreClock
    system_stm32f10x.o(i.SystemInit) refers to system_stm32f10x.o(i.SetSysClock) for SetSysClock
    event_groups.o(i.vEventGroupClearBitsCallback) refers to event_groups.o(i.xEventGroupClearBits) for xEventGroupClearBits
    event_groups.o(i.vEventGroupDelete) refers to tasks.o(i.vTaskSuspendAll) for vTaskSuspendAll
    event_groups.o(i.vEventGroupDelete) refers to port.o(.emb_text) for ulPortSetInterruptMask
    event_groups.o(i.vEventGroupDelete) refers to tasks.o(i.xTaskRemoveFromUnorderedEventList) for xTaskRemoveFromUnorderedEventList
    event_groups.o(i.vEventGroupDelete) refers to heap_4.o(i.vPortFree) for vPortFree
    event_groups.o(i.vEventGroupDelete) refers to tasks.o(i.xTaskResumeAll) for xTaskResumeAll
    event_groups.o(i.vEventGroupSetBitsCallback) refers to event_groups.o(i.xEventGroupSetBits) for xEventGroupSetBits
    event_groups.o(i.xEventGroupClearBits) refers to port.o(.emb_text) for ulPortSetInterruptMask
    event_groups.o(i.xEventGroupClearBits) refers to port.o(i.vPortEnterCritical) for vPortEnterCritical
    event_groups.o(i.xEventGroupClearBits) refers to port.o(i.vPortExitCritical) for vPortExitCritical
    event_groups.o(i.xEventGroupCreate) refers to heap_4.o(i.pvPortMalloc) for pvPortMalloc
    event_groups.o(i.xEventGroupCreate) refers to list.o(i.vListInitialise) for vListInitialise
    event_groups.o(i.xEventGroupGetBitsFromISR) refers to port.o(.emb_text) for ulPortSetInterruptMask
    event_groups.o(i.xEventGroupSetBits) refers to port.o(.emb_text) for ulPortSetInterruptMask
    event_groups.o(i.xEventGroupSetBits) refers to tasks.o(i.vTaskSuspendAll) for vTaskSuspendAll
    event_groups.o(i.xEventGroupSetBits) refers to tasks.o(i.xTaskRemoveFromUnorderedEventList) for xTaskRemoveFromUnorderedEventList
    event_groups.o(i.xEventGroupSetBits) refers to tasks.o(i.xTaskResumeAll) for xTaskResumeAll
    event_groups.o(i.xEventGroupSync) refers to port.o(.emb_text) for ulPortSetInterruptMask
    event_groups.o(i.xEventGroupSync) refers to tasks.o(i.xTaskGetSchedulerState) for xTaskGetSchedulerState
    event_groups.o(i.xEventGroupSync) refers to tasks.o(i.vTaskSuspendAll) for vTaskSuspendAll
    event_groups.o(i.xEventGroupSync) refers to event_groups.o(i.xEventGroupSetBits) for xEventGroupSetBits
    event_groups.o(i.xEventGroupSync) refers to tasks.o(i.vTaskPlaceOnUnorderedEventList) for vTaskPlaceOnUnorderedEventList
    event_groups.o(i.xEventGroupSync) refers to tasks.o(i.xTaskResumeAll) for xTaskResumeAll
    event_groups.o(i.xEventGroupSync) refers to port.o(i.vPortYield) for vPortYield
    event_groups.o(i.xEventGroupSync) refers to tasks.o(i.uxTaskResetEventItemValue) for uxTaskResetEventItemValue
    event_groups.o(i.xEventGroupSync) refers to port.o(i.vPortEnterCritical) for vPortEnterCritical
    event_groups.o(i.xEventGroupSync) refers to port.o(i.vPortExitCritical) for vPortExitCritical
    event_groups.o(i.xEventGroupWaitBits) refers to port.o(.emb_text) for ulPortSetInterruptMask
    event_groups.o(i.xEventGroupWaitBits) refers to tasks.o(i.xTaskGetSchedulerState) for xTaskGetSchedulerState
    event_groups.o(i.xEventGroupWaitBits) refers to tasks.o(i.vTaskSuspendAll) for vTaskSuspendAll
    event_groups.o(i.xEventGroupWaitBits) refers to event_groups.o(i.prvTestWaitCondition) for prvTestWaitCondition
    event_groups.o(i.xEventGroupWaitBits) refers to tasks.o(i.vTaskPlaceOnUnorderedEventList) for vTaskPlaceOnUnorderedEventList
    event_groups.o(i.xEventGroupWaitBits) refers to tasks.o(i.xTaskResumeAll) for xTaskResumeAll
    event_groups.o(i.xEventGroupWaitBits) refers to port.o(i.vPortYield) for vPortYield
    event_groups.o(i.xEventGroupWaitBits) refers to tasks.o(i.uxTaskResetEventItemValue) for uxTaskResetEventItemValue
    event_groups.o(i.xEventGroupWaitBits) refers to port.o(i.vPortEnterCritical) for vPortEnterCritical
    event_groups.o(i.xEventGroupWaitBits) refers to port.o(i.vPortExitCritical) for vPortExitCritical
    queue.o(i.prvCopyDataFromQueue) refers to memcpya.o(.text) for __aeabi_memcpy
    queue.o(i.prvCopyDataToQueue) refers to memcpya.o(.text) for __aeabi_memcpy
    queue.o(i.prvIsQueueEmpty) refers to port.o(i.vPortEnterCritical) for vPortEnterCritical
    queue.o(i.prvIsQueueEmpty) refers to port.o(i.vPortExitCritical) for vPortExitCritical
    queue.o(i.prvIsQueueFull) refers to port.o(i.vPortEnterCritical) for vPortEnterCritical
    queue.o(i.prvIsQueueFull) refers to port.o(i.vPortExitCritical) for vPortExitCritical
    queue.o(i.prvUnlockQueue) refers to port.o(i.vPortEnterCritical) for vPortEnterCritical
    queue.o(i.prvUnlockQueue) refers to tasks.o(i.xTaskRemoveFromEventList) for xTaskRemoveFromEventList
    queue.o(i.prvUnlockQueue) refers to tasks.o(i.vTaskMissedYield) for vTaskMissedYield
    queue.o(i.prvUnlockQueue) refers to port.o(i.vPortExitCritical) for vPortExitCritical
    queue.o(i.uxQueueMessagesWaiting) refers to port.o(.emb_text) for ulPortSetInterruptMask
    queue.o(i.uxQueueMessagesWaiting) refers to port.o(i.vPortEnterCritical) for vPortEnterCritical
    queue.o(i.uxQueueMessagesWaiting) refers to port.o(i.vPortExitCritical) for vPortExitCritical
    queue.o(i.uxQueueMessagesWaitingFromISR) refers to port.o(.emb_text) for ulPortSetInterruptMask
    queue.o(i.uxQueueSpacesAvailable) refers to port.o(.emb_text) for ulPortSetInterruptMask
    queue.o(i.uxQueueSpacesAvailable) refers to port.o(i.vPortEnterCritical) for vPortEnterCritical
    queue.o(i.uxQueueSpacesAvailable) refers to port.o(i.vPortExitCritical) for vPortExitCritical
    queue.o(i.vQueueDelete) refers to port.o(.emb_text) for ulPortSetInterruptMask
    queue.o(i.vQueueDelete) refers to heap_4.o(i.vPortFree) for vPortFree
    queue.o(i.vQueueWaitForMessageRestricted) refers to port.o(i.vPortEnterCritical) for vPortEnterCritical
    queue.o(i.vQueueWaitForMessageRestricted) refers to port.o(i.vPortExitCritical) for vPortExitCritical
    queue.o(i.vQueueWaitForMessageRestricted) refers to tasks.o(i.vTaskPlaceOnEventListRestricted) for vTaskPlaceOnEventListRestricted
    queue.o(i.vQueueWaitForMessageRestricted) refers to queue.o(i.prvUnlockQueue) for prvUnlockQueue
    queue.o(i.xQueueGenericCreate) refers to port.o(.emb_text) for ulPortSetInterruptMask
    queue.o(i.xQueueGenericCreate) refers to heap_4.o(i.pvPortMalloc) for pvPortMalloc
    queue.o(i.xQueueGenericCreate) refers to queue.o(i.xQueueGenericReset) for xQueueGenericReset
    queue.o(i.xQueueGenericReceive) refers to port.o(.emb_text) for ulPortSetInterruptMask
    queue.o(i.xQueueGenericReceive) refers to tasks.o(i.xTaskGetSchedulerState) for xTaskGetSchedulerState
    queue.o(i.xQueueGenericReceive) refers to port.o(i.vPortEnterCritical) for vPortEnterCritical
    queue.o(i.xQueueGenericReceive) refers to queue.o(i.prvCopyDataFromQueue) for prvCopyDataFromQueue
    queue.o(i.xQueueGenericReceive) refers to tasks.o(i.xTaskRemoveFromEventList) for xTaskRemoveFromEventList
    queue.o(i.xQueueGenericReceive) refers to port.o(i.vPortYield) for vPortYield
    queue.o(i.xQueueGenericReceive) refers to port.o(i.vPortExitCritical) for vPortExitCritical
    queue.o(i.xQueueGenericReceive) refers to tasks.o(i.vTaskSetTimeOutState) for vTaskSetTimeOutState
    queue.o(i.xQueueGenericReceive) refers to tasks.o(i.vTaskSuspendAll) for vTaskSuspendAll
    queue.o(i.xQueueGenericReceive) refers to tasks.o(i.xTaskCheckForTimeOut) for xTaskCheckForTimeOut
    queue.o(i.xQueueGenericReceive) refers to queue.o(i.prvIsQueueEmpty) for prvIsQueueEmpty
    queue.o(i.xQueueGenericReceive) refers to tasks.o(i.vTaskPlaceOnEventList) for vTaskPlaceOnEventList
    queue.o(i.xQueueGenericReceive) refers to queue.o(i.prvUnlockQueue) for prvUnlockQueue
    queue.o(i.xQueueGenericReceive) refers to tasks.o(i.xTaskResumeAll) for xTaskResumeAll
    queue.o(i.xQueueGenericReset) refers to port.o(.emb_text) for ulPortSetInterruptMask
    queue.o(i.xQueueGenericReset) refers to port.o(i.vPortEnterCritical) for vPortEnterCritical
    queue.o(i.xQueueGenericReset) refers to tasks.o(i.xTaskRemoveFromEventList) for xTaskRemoveFromEventList
    queue.o(i.xQueueGenericReset) refers to port.o(i.vPortYield) for vPortYield
    queue.o(i.xQueueGenericReset) refers to list.o(i.vListInitialise) for vListInitialise
    queue.o(i.xQueueGenericReset) refers to port.o(i.vPortExitCritical) for vPortExitCritical
    queue.o(i.xQueueGenericSend) refers to port.o(.emb_text) for ulPortSetInterruptMask
    queue.o(i.xQueueGenericSend) refers to tasks.o(i.xTaskGetSchedulerState) for xTaskGetSchedulerState
    queue.o(i.xQueueGenericSend) refers to port.o(i.vPortEnterCritical) for vPortEnterCritical
    queue.o(i.xQueueGenericSend) refers to queue.o(i.prvCopyDataToQueue) for prvCopyDataToQueue
    queue.o(i.xQueueGenericSend) refers to tasks.o(i.xTaskRemoveFromEventList) for xTaskRemoveFromEventList
    queue.o(i.xQueueGenericSend) refers to port.o(i.vPortYield) for vPortYield
    queue.o(i.xQueueGenericSend) refers to port.o(i.vPortExitCritical) for vPortExitCritical
    queue.o(i.xQueueGenericSend) refers to tasks.o(i.vTaskSetTimeOutState) for vTaskSetTimeOutState
    queue.o(i.xQueueGenericSend) refers to tasks.o(i.vTaskSuspendAll) for vTaskSuspendAll
    queue.o(i.xQueueGenericSend) refers to tasks.o(i.xTaskCheckForTimeOut) for xTaskCheckForTimeOut
    queue.o(i.xQueueGenericSend) refers to queue.o(i.prvIsQueueFull) for prvIsQueueFull
    queue.o(i.xQueueGenericSend) refers to tasks.o(i.vTaskPlaceOnEventList) for vTaskPlaceOnEventList
    queue.o(i.xQueueGenericSend) refers to queue.o(i.prvUnlockQueue) for prvUnlockQueue
    queue.o(i.xQueueGenericSend) refers to tasks.o(i.xTaskResumeAll) for xTaskResumeAll
    queue.o(i.xQueueGenericSendFromISR) refers to port.o(.emb_text) for ulPortSetInterruptMask
    queue.o(i.xQueueGenericSendFromISR) refers to port.o(i.vPortValidateInterruptPriority) for vPortValidateInterruptPriority
    queue.o(i.xQueueGenericSendFromISR) refers to queue.o(i.prvCopyDataToQueue) for prvCopyDataToQueue
    queue.o(i.xQueueGenericSendFromISR) refers to tasks.o(i.xTaskRemoveFromEventList) for xTaskRemoveFromEventList
    queue.o(i.xQueueGiveFromISR) refers to port.o(.emb_text) for ulPortSetInterruptMask
    queue.o(i.xQueueGiveFromISR) refers to port.o(i.vPortValidateInterruptPriority) for vPortValidateInterruptPriority
    queue.o(i.xQueueGiveFromISR) refers to tasks.o(i.xTaskRemoveFromEventList) for xTaskRemoveFromEventList
    queue.o(i.xQueueIsQueueEmptyFromISR) refers to port.o(.emb_text) for ulPortSetInterruptMask
    queue.o(i.xQueueIsQueueFullFromISR) refers to port.o(.emb_text) for ulPortSetInterruptMask
    queue.o(i.xQueuePeekFromISR) refers to port.o(.emb_text) for ulPortSetInterruptMask
    queue.o(i.xQueuePeekFromISR) refers to port.o(i.vPortValidateInterruptPriority) for vPortValidateInterruptPriority
    queue.o(i.xQueuePeekFromISR) refers to queue.o(i.prvCopyDataFromQueue) for prvCopyDataFromQueue
    queue.o(i.xQueueReceiveFromISR) refers to port.o(.emb_text) for ulPortSetInterruptMask
    queue.o(i.xQueueReceiveFromISR) refers to port.o(i.vPortValidateInterruptPriority) for vPortValidateInterruptPriority
    queue.o(i.xQueueReceiveFromISR) refers to queue.o(i.prvCopyDataFromQueue) for prvCopyDataFromQueue
    queue.o(i.xQueueReceiveFromISR) refers to tasks.o(i.xTaskRemoveFromEventList) for xTaskRemoveFromEventList
    tasks.o(i.prvAddCurrentTaskToDelayedList) refers to list.o(i.vListInsert) for vListInsert
    tasks.o(i.prvAddCurrentTaskToDelayedList) refers to tasks.o(.data) for pxCurrentTCB
    tasks.o(i.prvAllocateTCBAndStack) refers to heap_4.o(i.pvPortMalloc) for pvPortMalloc
    tasks.o(i.prvAllocateTCBAndStack) refers to heap_4.o(i.vPortFree) for vPortFree
    tasks.o(i.prvCheckTasksWaitingTermination) refers to tasks.o(i.vTaskSuspendAll) for vTaskSuspendAll
    tasks.o(i.prvCheckTasksWaitingTermination) refers to tasks.o(i.xTaskResumeAll) for xTaskResumeAll
    tasks.o(i.prvCheckTasksWaitingTermination) refers to port.o(i.vPortEnterCritical) for vPortEnterCritical
    tasks.o(i.prvCheckTasksWaitingTermination) refers to list.o(i.uxListRemove) for uxListRemove
    tasks.o(i.prvCheckTasksWaitingTermination) refers to port.o(i.vPortExitCritical) for vPortExitCritical
    tasks.o(i.prvCheckTasksWaitingTermination) refers to tasks.o(i.prvDeleteTCB) for prvDeleteTCB
    tasks.o(i.prvCheckTasksWaitingTermination) refers to tasks.o(.bss) for xTasksWaitingTermination
    tasks.o(i.prvCheckTasksWaitingTermination) refers to tasks.o(.data) for uxCurrentNumberOfTasks
    tasks.o(i.prvDeleteTCB) refers to heap_4.o(i.vPortFree) for vPortFree
    tasks.o(i.prvIdleTask) refers to tasks.o(i.prvCheckTasksWaitingTermination) for prvCheckTasksWaitingTermination
    tasks.o(i.prvIdleTask) refers to port.o(i.vPortYield) for vPortYield
    tasks.o(i.prvIdleTask) refers to tasks.o(.bss) for pxReadyTasksLists
    tasks.o(i.prvInitialiseTCBVariables) refers to list.o(i.vListInitialiseItem) for vListInitialiseItem
    tasks.o(i.prvInitialiseTaskLists) refers to list.o(i.vListInitialise) for vListInitialise
    tasks.o(i.prvInitialiseTaskLists) refers to tasks.o(.bss) for pxReadyTasksLists
    tasks.o(i.prvInitialiseTaskLists) refers to tasks.o(.data) for pxDelayedTaskList
    tasks.o(i.prvResetNextTaskUnblockTime) refers to tasks.o(.data) for pxDelayedTaskList
    tasks.o(i.prvTaskIsTaskSuspended) refers to port.o(.emb_text) for ulPortSetInterruptMask
    tasks.o(i.prvTaskIsTaskSuspended) refers to tasks.o(.bss) for xSuspendedTaskList
    tasks.o(i.ulTaskNotifyTake) refers to port.o(i.vPortEnterCritical) for vPortEnterCritical
    tasks.o(i.ulTaskNotifyTake) refers to list.o(i.uxListRemove) for uxListRemove
    tasks.o(i.ulTaskNotifyTake) refers to list.o(i.vListInsertEnd) for vListInsertEnd
    tasks.o(i.ulTaskNotifyTake) refers to tasks.o(i.prvAddCurrentTaskToDelayedList) for prvAddCurrentTaskToDelayedList
    tasks.o(i.ulTaskNotifyTake) refers to port.o(i.vPortYield) for vPortYield
    tasks.o(i.ulTaskNotifyTake) refers to port.o(i.vPortExitCritical) for vPortExitCritical
    tasks.o(i.ulTaskNotifyTake) refers to tasks.o(.data) for pxCurrentTCB
    tasks.o(i.ulTaskNotifyTake) refers to tasks.o(.bss) for xSuspendedTaskList
    tasks.o(i.uxTaskGetNumberOfTasks) refers to tasks.o(.data) for uxCurrentNumberOfTasks
    tasks.o(i.uxTaskPriorityGet) refers to port.o(i.vPortEnterCritical) for vPortEnterCritical
    tasks.o(i.uxTaskPriorityGet) refers to port.o(i.vPortExitCritical) for vPortExitCritical
    tasks.o(i.uxTaskPriorityGet) refers to tasks.o(.data) for pxCurrentTCB
    tasks.o(i.uxTaskPriorityGetFromISR) refers to port.o(i.vPortValidateInterruptPriority) for vPortValidateInterruptPriority
    tasks.o(i.uxTaskPriorityGetFromISR) refers to port.o(.emb_text) for ulPortSetInterruptMask
    tasks.o(i.uxTaskPriorityGetFromISR) refers to tasks.o(.data) for pxCurrentTCB
    tasks.o(i.uxTaskResetEventItemValue) refers to tasks.o(.data) for pxCurrentTCB
    tasks.o(i.vTaskDelay) refers to port.o(.emb_text) for ulPortSetInterruptMask
    tasks.o(i.vTaskDelay) refers to tasks.o(i.vTaskSuspendAll) for vTaskSuspendAll
    tasks.o(i.vTaskDelay) refers to list.o(i.uxListRemove) for uxListRemove
    tasks.o(i.vTaskDelay) refers to tasks.o(i.prvAddCurrentTaskToDelayedList) for prvAddCurrentTaskToDelayedList
    tasks.o(i.vTaskDelay) refers to tasks.o(i.xTaskResumeAll) for xTaskResumeAll
    tasks.o(i.vTaskDelay) refers to port.o(i.vPortYield) for vPortYield
    tasks.o(i.vTaskDelay) refers to tasks.o(.data) for uxSchedulerSuspended
    tasks.o(i.vTaskDelayUntil) refers to port.o(.emb_text) for ulPortSetInterruptMask
    tasks.o(i.vTaskDelayUntil) refers to tasks.o(i.vTaskSuspendAll) for vTaskSuspendAll
    tasks.o(i.vTaskDelayUntil) refers to list.o(i.uxListRemove) for uxListRemove
    tasks.o(i.vTaskDelayUntil) refers to tasks.o(i.prvAddCurrentTaskToDelayedList) for prvAddCurrentTaskToDelayedList
    tasks.o(i.vTaskDelayUntil) refers to tasks.o(i.xTaskResumeAll) for xTaskResumeAll
    tasks.o(i.vTaskDelayUntil) refers to port.o(i.vPortYield) for vPortYield
    tasks.o(i.vTaskDelayUntil) refers to tasks.o(.data) for uxSchedulerSuspended
    tasks.o(i.vTaskDelete) refers to port.o(i.vPortEnterCritical) for vPortEnterCritical
    tasks.o(i.vTaskDelete) refers to list.o(i.uxListRemove) for uxListRemove
    tasks.o(i.vTaskDelete) refers to list.o(i.vListInsertEnd) for vListInsertEnd
    tasks.o(i.vTaskDelete) refers to port.o(i.vPortExitCritical) for vPortExitCritical
    tasks.o(i.vTaskDelete) refers to port.o(.emb_text) for ulPortSetInterruptMask
    tasks.o(i.vTaskDelete) refers to port.o(i.vPortYield) for vPortYield
    tasks.o(i.vTaskDelete) refers to tasks.o(i.prvResetNextTaskUnblockTime) for prvResetNextTaskUnblockTime
    tasks.o(i.vTaskDelete) refers to tasks.o(.data) for pxCurrentTCB
    tasks.o(i.vTaskDelete) refers to tasks.o(.bss) for pxReadyTasksLists
    tasks.o(i.vTaskEndScheduler) refers to port.o(.emb_text) for ulPortSetInterruptMask
    tasks.o(i.vTaskEndScheduler) refers to port.o(i.vPortEndScheduler) for vPortEndScheduler
    tasks.o(i.vTaskEndScheduler) refers to tasks.o(.data) for xSchedulerRunning
    tasks.o(i.vTaskMissedYield) refers to tasks.o(.data) for xYieldPending
    tasks.o(i.vTaskNotifyGiveFromISR) refers to port.o(.emb_text) for ulPortSetInterruptMask
    tasks.o(i.vTaskNotifyGiveFromISR) refers to port.o(i.vPortValidateInterruptPriority) for vPortValidateInterruptPriority
    tasks.o(i.vTaskNotifyGiveFromISR) refers to list.o(i.uxListRemove) for uxListRemove
    tasks.o(i.vTaskNotifyGiveFromISR) refers to list.o(i.vListInsertEnd) for vListInsertEnd
    tasks.o(i.vTaskNotifyGiveFromISR) refers to tasks.o(.data) for uxSchedulerSuspended
    tasks.o(i.vTaskNotifyGiveFromISR) refers to tasks.o(.bss) for pxReadyTasksLists
    tasks.o(i.vTaskPlaceOnEventList) refers to port.o(.emb_text) for ulPortSetInterruptMask
    tasks.o(i.vTaskPlaceOnEventList) refers to list.o(i.vListInsert) for vListInsert
    tasks.o(i.vTaskPlaceOnEventList) refers to list.o(i.uxListRemove) for uxListRemove
    tasks.o(i.vTaskPlaceOnEventList) refers to list.o(i.vListInsertEnd) for vListInsertEnd
    tasks.o(i.vTaskPlaceOnEventList) refers to tasks.o(i.prvAddCurrentTaskToDelayedList) for prvAddCurrentTaskToDelayedList
    tasks.o(i.vTaskPlaceOnEventList) refers to tasks.o(.data) for pxCurrentTCB
    tasks.o(i.vTaskPlaceOnEventList) refers to tasks.o(.bss) for xSuspendedTaskList
    tasks.o(i.vTaskPlaceOnEventListRestricted) refers to port.o(.emb_text) for ulPortSetInterruptMask
    tasks.o(i.vTaskPlaceOnEventListRestricted) refers to list.o(i.vListInsertEnd) for vListInsertEnd
    tasks.o(i.vTaskPlaceOnEventListRestricted) refers to list.o(i.uxListRemove) for uxListRemove
    tasks.o(i.vTaskPlaceOnEventListRestricted) refers to tasks.o(i.prvAddCurrentTaskToDelayedList) for prvAddCurrentTaskToDelayedList
    tasks.o(i.vTaskPlaceOnEventListRestricted) refers to tasks.o(.data) for pxCurrentTCB
    tasks.o(i.vTaskPlaceOnEventListRestricted) refers to tasks.o(.bss) for xSuspendedTaskList
    tasks.o(i.vTaskPlaceOnUnorderedEventList) refers to port.o(.emb_text) for ulPortSetInterruptMask
    tasks.o(i.vTaskPlaceOnUnorderedEventList) refers to list.o(i.vListInsertEnd) for vListInsertEnd
    tasks.o(i.vTaskPlaceOnUnorderedEventList) refers to list.o(i.uxListRemove) for uxListRemove
    tasks.o(i.vTaskPlaceOnUnorderedEventList) refers to tasks.o(i.prvAddCurrentTaskToDelayedList) for prvAddCurrentTaskToDelayedList
    tasks.o(i.vTaskPlaceOnUnorderedEventList) refers to tasks.o(.data) for uxSchedulerSuspended
    tasks.o(i.vTaskPlaceOnUnorderedEventList) refers to tasks.o(.bss) for xSuspendedTaskList
    tasks.o(i.vTaskPrioritySet) refers to port.o(.emb_text) for ulPortSetInterruptMask
    tasks.o(i.vTaskPrioritySet) refers to port.o(i.vPortEnterCritical) for vPortEnterCritical
    tasks.o(i.vTaskPrioritySet) refers to list.o(i.uxListRemove) for uxListRemove
    tasks.o(i.vTaskPrioritySet) refers to list.o(i.vListInsertEnd) for vListInsertEnd
    tasks.o(i.vTaskPrioritySet) refers to port.o(i.vPortYield) for vPortYield
    tasks.o(i.vTaskPrioritySet) refers to port.o(i.vPortExitCritical) for vPortExitCritical
    tasks.o(i.vTaskPrioritySet) refers to tasks.o(.data) for pxCurrentTCB
    tasks.o(i.vTaskPrioritySet) refers to tasks.o(.bss) for pxReadyTasksLists
    tasks.o(i.vTaskResume) refers to port.o(.emb_text) for ulPortSetInterruptMask
    tasks.o(i.vTaskResume) refers to port.o(i.vPortEnterCritical) for vPortEnterCritical
    tasks.o(i.vTaskResume) refers to tasks.o(i.prvTaskIsTaskSuspended) for prvTaskIsTaskSuspended
    tasks.o(i.vTaskResume) refers to list.o(i.uxListRemove) for uxListRemove
    tasks.o(i.vTaskResume) refers to list.o(i.vListInsertEnd) for vListInsertEnd
    tasks.o(i.vTaskResume) refers to port.o(i.vPortYield) for vPortYield
    tasks.o(i.vTaskResume) refers to port.o(i.vPortExitCritical) for vPortExitCritical
    tasks.o(i.vTaskResume) refers to tasks.o(.data) for pxCurrentTCB
    tasks.o(i.vTaskResume) refers to tasks.o(.bss) for pxReadyTasksLists
    tasks.o(i.vTaskSetTimeOutState) refers to port.o(.emb_text) for ulPortSetInterruptMask
    tasks.o(i.vTaskSetTimeOutState) refers to tasks.o(.data) for xNumOfOverflows
    tasks.o(i.vTaskStartScheduler) refers to tasks.o(i.xTaskGenericCreate) for xTaskGenericCreate
    tasks.o(i.vTaskStartScheduler) refers to timers.o(i.xTimerCreateTimerTask) for xTimerCreateTimerTask
    tasks.o(i.vTaskStartScheduler) refers to port.o(.emb_text) for ulPortSetInterruptMask
    tasks.o(i.vTaskStartScheduler) refers to port.o(i.xPortStartScheduler) for xPortStartScheduler
    tasks.o(i.vTaskStartScheduler) refers to tasks.o(i.prvIdleTask) for prvIdleTask
    tasks.o(i.vTaskStartScheduler) refers to tasks.o(.data) for xNextTaskUnblockTime
    tasks.o(i.vTaskSuspend) refers to port.o(i.vPortEnterCritical) for vPortEnterCritical
    tasks.o(i.vTaskSuspend) refers to list.o(i.uxListRemove) for uxListRemove
    tasks.o(i.vTaskSuspend) refers to list.o(i.vListInsertEnd) for vListInsertEnd
    tasks.o(i.vTaskSuspend) refers to port.o(i.vPortExitCritical) for vPortExitCritical
    tasks.o(i.vTaskSuspend) refers to port.o(.emb_text) for ulPortSetInterruptMask
    tasks.o(i.vTaskSuspend) refers to port.o(i.vPortYield) for vPortYield
    tasks.o(i.vTaskSuspend) refers to tasks.o(i.vTaskSwitchContext) for vTaskSwitchContext
    tasks.o(i.vTaskSuspend) refers to tasks.o(i.prvResetNextTaskUnblockTime) for prvResetNextTaskUnblockTime
    tasks.o(i.vTaskSuspend) refers to tasks.o(.data) for pxCurrentTCB
    tasks.o(i.vTaskSuspend) refers to tasks.o(.bss) for pxReadyTasksLists
    tasks.o(i.vTaskSuspendAll) refers to tasks.o(.data) for uxSchedulerSuspended
    tasks.o(i.vTaskSwitchContext) refers to port.o(.emb_text) for ulPortSetInterruptMask
    tasks.o(i.vTaskSwitchContext) refers to tasks.o(.data) for uxSchedulerSuspended
    tasks.o(i.vTaskSwitchContext) refers to tasks.o(.bss) for pxReadyTasksLists
    tasks.o(i.xTaskCheckForTimeOut) refers to port.o(.emb_text) for ulPortSetInterruptMask
    tasks.o(i.xTaskCheckForTimeOut) refers to port.o(i.vPortEnterCritical) for vPortEnterCritical
    tasks.o(i.xTaskCheckForTimeOut) refers to tasks.o(i.vTaskSetTimeOutState) for vTaskSetTimeOutState
    tasks.o(i.xTaskCheckForTimeOut) refers to port.o(i.vPortExitCritical) for vPortExitCritical
    tasks.o(i.xTaskCheckForTimeOut) refers to tasks.o(.data) for xTickCount
    tasks.o(i.xTaskGenericCreate) refers to port.o(.emb_text) for ulPortSetInterruptMask
    tasks.o(i.xTaskGenericCreate) refers to tasks.o(i.prvAllocateTCBAndStack) for prvAllocateTCBAndStack
    tasks.o(i.xTaskGenericCreate) refers to tasks.o(i.prvInitialiseTCBVariables) for prvInitialiseTCBVariables
    tasks.o(i.xTaskGenericCreate) refers to port.o(i.pxPortInitialiseStack) for pxPortInitialiseStack
    tasks.o(i.xTaskGenericCreate) refers to port.o(i.vPortEnterCritical) for vPortEnterCritical
    tasks.o(i.xTaskGenericCreate) refers to tasks.o(i.prvInitialiseTaskLists) for prvInitialiseTaskLists
    tasks.o(i.xTaskGenericCreate) refers to list.o(i.vListInsertEnd) for vListInsertEnd
    tasks.o(i.xTaskGenericCreate) refers to port.o(i.vPortExitCritical) for vPortExitCritical
    tasks.o(i.xTaskGenericCreate) refers to port.o(i.vPortYield) for vPortYield
    tasks.o(i.xTaskGenericCreate) refers to tasks.o(.data) for uxCurrentNumberOfTasks
    tasks.o(i.xTaskGenericCreate) refers to tasks.o(.bss) for pxReadyTasksLists
    tasks.o(i.xTaskGenericNotify) refers to port.o(.emb_text) for ulPortSetInterruptMask
    tasks.o(i.xTaskGenericNotify) refers to port.o(i.vPortEnterCritical) for vPortEnterCritical
    tasks.o(i.xTaskGenericNotify) refers to list.o(i.uxListRemove) for uxListRemove
    tasks.o(i.xTaskGenericNotify) refers to list.o(i.vListInsertEnd) for vListInsertEnd
    tasks.o(i.xTaskGenericNotify) refers to port.o(i.vPortYield) for vPortYield
    tasks.o(i.xTaskGenericNotify) refers to port.o(i.vPortExitCritical) for vPortExitCritical
    tasks.o(i.xTaskGenericNotify) refers to tasks.o(.data) for uxTopReadyPriority
    tasks.o(i.xTaskGenericNotify) refers to tasks.o(.bss) for pxReadyTasksLists
    tasks.o(i.xTaskGenericNotifyFromISR) refers to port.o(.emb_text) for ulPortSetInterruptMask
    tasks.o(i.xTaskGenericNotifyFromISR) refers to port.o(i.vPortValidateInterruptPriority) for vPortValidateInterruptPriority
    tasks.o(i.xTaskGenericNotifyFromISR) refers to list.o(i.uxListRemove) for uxListRemove
    tasks.o(i.xTaskGenericNotifyFromISR) refers to list.o(i.vListInsertEnd) for vListInsertEnd
    tasks.o(i.xTaskGenericNotifyFromISR) refers to tasks.o(.data) for uxSchedulerSuspended
    tasks.o(i.xTaskGenericNotifyFromISR) refers to tasks.o(.bss) for pxReadyTasksLists
    tasks.o(i.xTaskGetSchedulerState) refers to tasks.o(.data) for xSchedulerRunning
    tasks.o(i.xTaskGetTickCount) refers to tasks.o(.data) for xTickCount
    tasks.o(i.xTaskGetTickCountFromISR) refers to port.o(i.vPortValidateInterruptPriority) for vPortValidateInterruptPriority
    tasks.o(i.xTaskGetTickCountFromISR) refers to tasks.o(.data) for xTickCount
    tasks.o(i.xTaskIncrementTick) refers to port.o(.emb_text) for ulPortSetInterruptMask
    tasks.o(i.xTaskIncrementTick) refers to tasks.o(i.prvResetNextTaskUnblockTime) for prvResetNextTaskUnblockTime
    tasks.o(i.xTaskIncrementTick) refers to list.o(i.uxListRemove) for uxListRemove
    tasks.o(i.xTaskIncrementTick) refers to list.o(i.vListInsertEnd) for vListInsertEnd
    tasks.o(i.xTaskIncrementTick) refers to tasks.o(.data) for uxSchedulerSuspended
    tasks.o(i.xTaskIncrementTick) refers to tasks.o(.bss) for pxReadyTasksLists
    tasks.o(i.xTaskNotifyStateClear) refers to port.o(i.vPortEnterCritical) for vPortEnterCritical
    tasks.o(i.xTaskNotifyStateClear) refers to port.o(i.vPortExitCritical) for vPortExitCritical
    tasks.o(i.xTaskNotifyStateClear) refers to tasks.o(.data) for pxCurrentTCB
    tasks.o(i.xTaskNotifyWait) refers to port.o(i.vPortEnterCritical) for vPortEnterCritical
    tasks.o(i.xTaskNotifyWait) refers to list.o(i.uxListRemove) for uxListRemove
    tasks.o(i.xTaskNotifyWait) refers to list.o(i.vListInsertEnd) for vListInsertEnd
    tasks.o(i.xTaskNotifyWait) refers to tasks.o(i.prvAddCurrentTaskToDelayedList) for prvAddCurrentTaskToDelayedList
    tasks.o(i.xTaskNotifyWait) refers to port.o(i.vPortYield) for vPortYield
    tasks.o(i.xTaskNotifyWait) refers to port.o(i.vPortExitCritical) for vPortExitCritical
    tasks.o(i.xTaskNotifyWait) refers to tasks.o(.data) for pxCurrentTCB
    tasks.o(i.xTaskNotifyWait) refers to tasks.o(.bss) for xSuspendedTaskList
    tasks.o(i.xTaskRemoveFromEventList) refers to port.o(.emb_text) for ulPortSetInterruptMask
    tasks.o(i.xTaskRemoveFromEventList) refers to list.o(i.uxListRemove) for uxListRemove
    tasks.o(i.xTaskRemoveFromEventList) refers to list.o(i.vListInsertEnd) for vListInsertEnd
    tasks.o(i.xTaskRemoveFromEventList) refers to tasks.o(.data) for uxSchedulerSuspended
    tasks.o(i.xTaskRemoveFromEventList) refers to tasks.o(.bss) for pxReadyTasksLists
    tasks.o(i.xTaskRemoveFromUnorderedEventList) refers to port.o(.emb_text) for ulPortSetInterruptMask
    tasks.o(i.xTaskRemoveFromUnorderedEventList) refers to list.o(i.uxListRemove) for uxListRemove
    tasks.o(i.xTaskRemoveFromUnorderedEventList) refers to list.o(i.vListInsertEnd) for vListInsertEnd
    tasks.o(i.xTaskRemoveFromUnorderedEventList) refers to tasks.o(.data) for uxSchedulerSuspended
    tasks.o(i.xTaskRemoveFromUnorderedEventList) refers to tasks.o(.bss) for pxReadyTasksLists
    tasks.o(i.xTaskResumeAll) refers to port.o(.emb_text) for ulPortSetInterruptMask
    tasks.o(i.xTaskResumeAll) refers to port.o(i.vPortEnterCritical) for vPortEnterCritical
    tasks.o(i.xTaskResumeAll) refers to list.o(i.uxListRemove) for uxListRemove
    tasks.o(i.xTaskResumeAll) refers to list.o(i.vListInsertEnd) for vListInsertEnd
    tasks.o(i.xTaskResumeAll) refers to tasks.o(i.xTaskIncrementTick) for xTaskIncrementTick
    tasks.o(i.xTaskResumeAll) refers to port.o(i.vPortYield) for vPortYield
    tasks.o(i.xTaskResumeAll) refers to port.o(i.vPortExitCritical) for vPortExitCritical
    tasks.o(i.xTaskResumeAll) refers to tasks.o(.data) for uxSchedulerSuspended
    tasks.o(i.xTaskResumeAll) refers to tasks.o(.bss) for xPendingReadyList
    tasks.o(i.xTaskResumeFromISR) refers to port.o(.emb_text) for ulPortSetInterruptMask
    tasks.o(i.xTaskResumeFromISR) refers to port.o(i.vPortValidateInterruptPriority) for vPortValidateInterruptPriority
    tasks.o(i.xTaskResumeFromISR) refers to tasks.o(i.prvTaskIsTaskSuspended) for prvTaskIsTaskSuspended
    tasks.o(i.xTaskResumeFromISR) refers to list.o(i.uxListRemove) for uxListRemove
    tasks.o(i.xTaskResumeFromISR) refers to list.o(i.vListInsertEnd) for vListInsertEnd
    tasks.o(i.xTaskResumeFromISR) refers to tasks.o(.data) for uxSchedulerSuspended
    tasks.o(i.xTaskResumeFromISR) refers to tasks.o(.bss) for pxReadyTasksLists
    timers.o(i.pcTimerGetTimerName) refers to port.o(.emb_text) for ulPortSetInterruptMask
    timers.o(i.prvCheckForValidListAndQueue) refers to port.o(i.vPortEnterCritical) for vPortEnterCritical
    timers.o(i.prvCheckForValidListAndQueue) refers to list.o(i.vListInitialise) for vListInitialise
    timers.o(i.prvCheckForValidListAndQueue) refers to queue.o(i.xQueueGenericCreate) for xQueueGenericCreate
    timers.o(i.prvCheckForValidListAndQueue) refers to port.o(.emb_text) for ulPortSetInterruptMask
    timers.o(i.prvCheckForValidListAndQueue) refers to port.o(i.vPortExitCritical) for vPortExitCritical
    timers.o(i.prvCheckForValidListAndQueue) refers to timers.o(.data) for xTimerQueue
    timers.o(i.prvCheckForValidListAndQueue) refers to timers.o(.bss) for xActiveTimerList1
    timers.o(i.prvGetNextExpireTime) refers to timers.o(.data) for pxCurrentTimerList
    timers.o(i.prvInsertTimerInActiveList) refers to list.o(i.vListInsert) for vListInsert
    timers.o(i.prvInsertTimerInActiveList) refers to timers.o(.data) for pxOverflowTimerList
    timers.o(i.prvProcessExpiredTimer) refers to list.o(i.uxListRemove) for uxListRemove
    timers.o(i.prvProcessExpiredTimer) refers to timers.o(i.prvInsertTimerInActiveList) for prvInsertTimerInActiveList
    timers.o(i.prvProcessExpiredTimer) refers to timers.o(i.xTimerGenericCommand) for xTimerGenericCommand
    timers.o(i.prvProcessExpiredTimer) refers to port.o(.emb_text) for ulPortSetInterruptMask
    timers.o(i.prvProcessExpiredTimer) refers to timers.o(.data) for pxCurrentTimerList
    timers.o(i.prvProcessReceivedCommands) refers to list.o(i.uxListRemove) for uxListRemove
    timers.o(i.prvProcessReceivedCommands) refers to timers.o(i.prvSampleTimeNow) for prvSampleTimeNow
    timers.o(i.prvProcessReceivedCommands) refers to timers.o(i.prvInsertTimerInActiveList) for prvInsertTimerInActiveList
    timers.o(i.prvProcessReceivedCommands) refers to timers.o(i.xTimerGenericCommand) for xTimerGenericCommand
    timers.o(i.prvProcessReceivedCommands) refers to port.o(.emb_text) for ulPortSetInterruptMask
    timers.o(i.prvProcessReceivedCommands) refers to heap_4.o(i.vPortFree) for vPortFree
    timers.o(i.prvProcessReceivedCommands) refers to queue.o(i.xQueueGenericReceive) for xQueueGenericReceive
    timers.o(i.prvProcessReceivedCommands) refers to timers.o(.data) for xTimerQueue
    timers.o(i.prvProcessTimerOrBlockTask) refers to tasks.o(i.vTaskSuspendAll) for vTaskSuspendAll
    timers.o(i.prvProcessTimerOrBlockTask) refers to timers.o(i.prvSampleTimeNow) for prvSampleTimeNow
    timers.o(i.prvProcessTimerOrBlockTask) refers to tasks.o(i.xTaskResumeAll) for xTaskResumeAll
    timers.o(i.prvProcessTimerOrBlockTask) refers to timers.o(i.prvProcessExpiredTimer) for prvProcessExpiredTimer
    timers.o(i.prvProcessTimerOrBlockTask) refers to queue.o(i.vQueueWaitForMessageRestricted) for vQueueWaitForMessageRestricted
    timers.o(i.prvProcessTimerOrBlockTask) refers to port.o(i.vPortYield) for vPortYield
    timers.o(i.prvProcessTimerOrBlockTask) refers to timers.o(.data) for pxOverflowTimerList
    timers.o(i.prvSampleTimeNow) refers to tasks.o(i.xTaskGetTickCount) for xTaskGetTickCount
    timers.o(i.prvSampleTimeNow) refers to timers.o(i.prvSwitchTimerLists) for prvSwitchTimerLists
    timers.o(i.prvSampleTimeNow) refers to timers.o(.data) for xLastTime
    timers.o(i.prvSwitchTimerLists) refers to list.o(i.uxListRemove) for uxListRemove
    timers.o(i.prvSwitchTimerLists) refers to list.o(i.vListInsert) for vListInsert
    timers.o(i.prvSwitchTimerLists) refers to timers.o(i.xTimerGenericCommand) for xTimerGenericCommand
    timers.o(i.prvSwitchTimerLists) refers to port.o(.emb_text) for ulPortSetInterruptMask
    timers.o(i.prvSwitchTimerLists) refers to timers.o(.data) for pxCurrentTimerList
    timers.o(i.prvTimerTask) refers to timers.o(i.prvGetNextExpireTime) for prvGetNextExpireTime
    timers.o(i.prvTimerTask) refers to timers.o(i.prvProcessTimerOrBlockTask) for prvProcessTimerOrBlockTask
    timers.o(i.prvTimerTask) refers to timers.o(i.prvProcessReceivedCommands) for prvProcessReceivedCommands
    timers.o(i.pvTimerGetTimerID) refers to port.o(.emb_text) for ulPortSetInterruptMask
    timers.o(i.pvTimerGetTimerID) refers to port.o(i.vPortEnterCritical) for vPortEnterCritical
    timers.o(i.pvTimerGetTimerID) refers to port.o(i.vPortExitCritical) for vPortExitCritical
    timers.o(i.vTimerSetTimerID) refers to port.o(.emb_text) for ulPortSetInterruptMask
    timers.o(i.vTimerSetTimerID) refers to port.o(i.vPortEnterCritical) for vPortEnterCritical
    timers.o(i.vTimerSetTimerID) refers to port.o(i.vPortExitCritical) for vPortExitCritical
    timers.o(i.xTimerCreate) refers to heap_4.o(i.pvPortMalloc) for pvPortMalloc
    timers.o(i.xTimerCreate) refers to timers.o(i.prvCheckForValidListAndQueue) for prvCheckForValidListAndQueue
    timers.o(i.xTimerCreate) refers to list.o(i.vListInitialiseItem) for vListInitialiseItem
    timers.o(i.xTimerCreate) refers to port.o(.emb_text) for ulPortSetInterruptMask
    timers.o(i.xTimerCreateTimerTask) refers to timers.o(i.prvCheckForValidListAndQueue) for prvCheckForValidListAndQueue
    timers.o(i.xTimerCreateTimerTask) refers to tasks.o(i.xTaskGenericCreate) for xTaskGenericCreate
    timers.o(i.xTimerCreateTimerTask) refers to port.o(.emb_text) for ulPortSetInterruptMask
    timers.o(i.xTimerCreateTimerTask) refers to timers.o(.data) for xTimerQueue
    timers.o(i.xTimerCreateTimerTask) refers to timers.o(i.prvTimerTask) for prvTimerTask
    timers.o(i.xTimerGenericCommand) refers to port.o(.emb_text) for ulPortSetInterruptMask
    timers.o(i.xTimerGenericCommand) refers to tasks.o(i.xTaskGetSchedulerState) for xTaskGetSchedulerState
    timers.o(i.xTimerGenericCommand) refers to queue.o(i.xQueueGenericSend) for xQueueGenericSend
    timers.o(i.xTimerGenericCommand) refers to queue.o(i.xQueueGenericSendFromISR) for xQueueGenericSendFromISR
    timers.o(i.xTimerGenericCommand) refers to timers.o(.data) for xTimerQueue
    timers.o(i.xTimerIsTimerActive) refers to port.o(.emb_text) for ulPortSetInterruptMask
    timers.o(i.xTimerIsTimerActive) refers to port.o(i.vPortEnterCritical) for vPortEnterCritical
    timers.o(i.xTimerIsTimerActive) refers to port.o(i.vPortExitCritical) for vPortExitCritical
    port.o(.emb_text) refers to tasks.o(i.vTaskSwitchContext) for vTaskSwitchContext
    port.o(.emb_text) refers to tasks.o(.data) for pxCurrentTCB
    port.o(i.SysTick_Handler) refers to port.o(.emb_text) for ulPortSetInterruptMask
    port.o(i.SysTick_Handler) refers to tasks.o(i.xTaskIncrementTick) for xTaskIncrementTick
    port.o(i.prvTaskExitError) refers to port.o(.emb_text) for ulPortSetInterruptMask
    port.o(i.prvTaskExitError) refers to port.o(.data) for uxCriticalNesting
    port.o(i.pxPortInitialiseStack) refers to port.o(i.prvTaskExitError) for prvTaskExitError
    port.o(i.vPortEndScheduler) refers to port.o(.emb_text) for ulPortSetInterruptMask
    port.o(i.vPortEndScheduler) refers to port.o(.data) for uxCriticalNesting
    port.o(i.vPortEnterCritical) refers to port.o(.emb_text) for ulPortSetInterruptMask
    port.o(i.vPortEnterCritical) refers to port.o(.data) for uxCriticalNesting
    port.o(i.vPortExitCritical) refers to port.o(.emb_text) for ulPortSetInterruptMask
    port.o(i.vPortExitCritical) refers to port.o(.data) for uxCriticalNesting
    port.o(i.vPortValidateInterruptPriority) refers to port.o(.emb_text) for vPortGetIPSR
    port.o(i.vPortValidateInterruptPriority) refers to port.o(.data) for ucMaxSysCallPriority
    port.o(i.xPortStartScheduler) refers to port.o(i.vPortSetupTimerInterrupt) for vPortSetupTimerInterrupt
    port.o(i.xPortStartScheduler) refers to port.o(.emb_text) for __asm___6_port_c_39a90d8d__prvStartFirstTask
    port.o(i.xPortStartScheduler) refers to port.o(.data) for ucMaxSysCallPriority
    heap_4.o(i.prvHeapInit) refers to heap_4.o(.bss) for ucHeap
    heap_4.o(i.prvHeapInit) refers to heap_4.o(.data) for xStart
    heap_4.o(i.prvInsertBlockIntoFreeList) refers to heap_4.o(.data) for xStart
    heap_4.o(i.pvPortMalloc) refers to tasks.o(i.vTaskSuspendAll) for vTaskSuspendAll
    heap_4.o(i.pvPortMalloc) refers to heap_4.o(i.prvHeapInit) for prvHeapInit
    heap_4.o(i.pvPortMalloc) refers to port.o(.emb_text) for ulPortSetInterruptMask
    heap_4.o(i.pvPortMalloc) refers to heap_4.o(i.prvInsertBlockIntoFreeList) for prvInsertBlockIntoFreeList
    heap_4.o(i.pvPortMalloc) refers to tasks.o(i.xTaskResumeAll) for xTaskResumeAll
    heap_4.o(i.pvPortMalloc) refers to heap_4.o(.data) for pxEnd
    heap_4.o(i.vPortFree) refers to port.o(.emb_text) for ulPortSetInterruptMask
    heap_4.o(i.vPortFree) refers to tasks.o(i.vTaskSuspendAll) for vTaskSuspendAll
    heap_4.o(i.vPortFree) refers to heap_4.o(i.prvInsertBlockIntoFreeList) for prvInsertBlockIntoFreeList
    heap_4.o(i.vPortFree) refers to tasks.o(i.xTaskResumeAll) for xTaskResumeAll
    heap_4.o(i.vPortFree) refers to heap_4.o(.data) for xBlockAllocatedBit
    heap_4.o(i.xPortGetFreeHeapSize) refers to heap_4.o(.data) for xFreeBytesRemaining
    heap_4.o(i.xPortGetMinimumEverFreeHeapSize) refers to heap_4.o(.data) for xMinimumEverFreeBytesRemaining
    entry.o(.ARM.Collect$$$$00000000) refers (Special) to entry10a.o(.ARM.Collect$$$$0000000D) for __rt_final_cpp
    entry.o(.ARM.Collect$$$$00000000) refers (Special) to entry11a.o(.ARM.Collect$$$$0000000F) for __rt_final_exit
    entry.o(.ARM.Collect$$$$00000000) refers (Special) to entry7b.o(.ARM.Collect$$$$00000008) for _main_clock
    entry.o(.ARM.Collect$$$$00000000) refers (Special) to entry8b.o(.ARM.Collect$$$$0000000A) for _main_cpp_init
    entry.o(.ARM.Collect$$$$00000000) refers (Special) to entry9a.o(.ARM.Collect$$$$0000000B) for _main_init
    entry.o(.ARM.Collect$$$$00000000) refers (Special) to entry5.o(.ARM.Collect$$$$00000004) for _main_scatterload
    entry.o(.ARM.Collect$$$$00000000) refers (Special) to entry2.o(.ARM.Collect$$$$00000001) for _main_stk
    rand.o(.text) refers to rand.o(.data) for .data
    printfb.o(i.__0fprintf$bare) refers to printfb.o(i._printf_core) for _printf_core
    printfb.o(i.__0fprintf$bare) refers to bsp_uart_fifo.o(i.fputc) for fputc
    printfb.o(i.__0printf$bare) refers to printfb.o(i._printf_core) for _printf_core
    printfb.o(i.__0printf$bare) refers to bsp_uart_fifo.o(i.fputc) for fputc
    printfb.o(i.__0printf$bare) refers to stdout.o(.data) for __stdout
    printfb.o(i.__0snprintf$bare) refers to printfb.o(i._printf_core) for _printf_core
    printfb.o(i.__0snprintf$bare) refers to printfb.o(i._snputc) for _snputc
    printfb.o(i.__0sprintf$bare) refers to printfb.o(i._printf_core) for _printf_core
    printfb.o(i.__0sprintf$bare) refers to printfb.o(i._sputc) for _sputc
    printfb.o(i.__0vfprintf$bare) refers to printfb.o(i._printf_core) for _printf_core
    printfb.o(i.__0vfprintf$bare) refers to bsp_uart_fifo.o(i.fputc) for fputc
    printfb.o(i.__0vprintf$bare) refers to printfb.o(i._printf_core) for _printf_core
    printfb.o(i.__0vprintf$bare) refers to bsp_uart_fifo.o(i.fputc) for fputc
    printfb.o(i.__0vprintf$bare) refers to stdout.o(.data) for __stdout
    printfb.o(i.__0vsnprintf$bare) refers to printfb.o(i._printf_core) for _printf_core
    printfb.o(i.__0vsnprintf$bare) refers to printfb.o(i._snputc) for _snputc
    printfb.o(i.__0vsprintf$bare) refers to printfb.o(i._printf_core) for _printf_core
    printfb.o(i.__0vsprintf$bare) refers to printfb.o(i._sputc) for _sputc
    printf0.o(i.__0fprintf$0) refers to printf0.o(i._printf_core) for _printf_core
    printf0.o(i.__0fprintf$0) refers to bsp_uart_fifo.o(i.fputc) for fputc
    printf0.o(i.__0printf$0) refers to printf0.o(i._printf_core) for _printf_core
    printf0.o(i.__0printf$0) refers to bsp_uart_fifo.o(i.fputc) for fputc
    printf0.o(i.__0printf$0) refers to stdout.o(.data) for __stdout
    printf0.o(i.__0snprintf$0) refers to printf0.o(i._printf_core) for _printf_core
    printf0.o(i.__0snprintf$0) refers to printf0.o(i._snputc) for _snputc
    printf0.o(i.__0sprintf$0) refers to printf0.o(i._printf_core) for _printf_core
    printf0.o(i.__0sprintf$0) refers to printf0.o(i._sputc) for _sputc
    printf0.o(i.__0vfprintf$0) refers to printf0.o(i._printf_core) for _printf_core
    printf0.o(i.__0vfprintf$0) refers to bsp_uart_fifo.o(i.fputc) for fputc
    printf0.o(i.__0vprintf$0) refers to printf0.o(i._printf_core) for _printf_core
    printf0.o(i.__0vprintf$0) refers to bsp_uart_fifo.o(i.fputc) for fputc
    printf0.o(i.__0vprintf$0) refers to stdout.o(.data) for __stdout
    printf0.o(i.__0vsnprintf$0) refers to printf0.o(i._printf_core) for _printf_core
    printf0.o(i.__0vsnprintf$0) refers to printf0.o(i._snputc) for _snputc
    printf0.o(i.__0vsprintf$0) refers to printf0.o(i._printf_core) for _printf_core
    printf0.o(i.__0vsprintf$0) refers to printf0.o(i._sputc) for _sputc
    printf1.o(i.__0fprintf$1) refers to printf1.o(i._printf_core) for _printf_core
    printf1.o(i.__0fprintf$1) refers to bsp_uart_fifo.o(i.fputc) for fputc
    printf1.o(i.__0printf$1) refers to printf1.o(i._printf_core) for _printf_core
    printf1.o(i.__0printf$1) refers to bsp_uart_fifo.o(i.fputc) for fputc
    printf1.o(i.__0printf$1) refers to stdout.o(.data) for __stdout
    printf1.o(i.__0snprintf$1) refers to printf1.o(i._printf_core) for _printf_core
    printf1.o(i.__0snprintf$1) refers to printf1.o(i._snputc) for _snputc
    printf1.o(i.__0sprintf$1) refers to printf1.o(i._printf_core) for _printf_core
    printf1.o(i.__0sprintf$1) refers to printf1.o(i._sputc) for _sputc
    printf1.o(i.__0vfprintf$1) refers to printf1.o(i._printf_core) for _printf_core
    printf1.o(i.__0vfprintf$1) refers to bsp_uart_fifo.o(i.fputc) for fputc
    printf1.o(i.__0vprintf$1) refers to printf1.o(i._printf_core) for _printf_core
    printf1.o(i.__0vprintf$1) refers to bsp_uart_fifo.o(i.fputc) for fputc
    printf1.o(i.__0vprintf$1) refers to stdout.o(.data) for __stdout
    printf1.o(i.__0vsnprintf$1) refers to printf1.o(i._printf_core) for _printf_core
    printf1.o(i.__0vsnprintf$1) refers to printf1.o(i._snputc) for _snputc
    printf1.o(i.__0vsprintf$1) refers to printf1.o(i._printf_core) for _printf_core
    printf1.o(i.__0vsprintf$1) refers to printf1.o(i._sputc) for _sputc
    printf1.o(i._printf_core) refers to uidiv.o(.text) for __aeabi_uidivmod
    printf2.o(i.__0fprintf$2) refers to printf2.o(i._printf_core) for _printf_core
    printf2.o(i.__0fprintf$2) refers to bsp_uart_fifo.o(i.fputc) for fputc
    printf2.o(i.__0printf$2) refers to printf2.o(i._printf_core) for _printf_core
    printf2.o(i.__0printf$2) refers to bsp_uart_fifo.o(i.fputc) for fputc
    printf2.o(i.__0printf$2) refers to stdout.o(.data) for __stdout
    printf2.o(i.__0snprintf$2) refers to printf2.o(i._printf_core) for _printf_core
    printf2.o(i.__0snprintf$2) refers to printf2.o(i._snputc) for _snputc
    printf2.o(i.__0sprintf$2) refers to printf2.o(i._printf_core) for _printf_core
    printf2.o(i.__0sprintf$2) refers to printf2.o(i._sputc) for _sputc
    printf2.o(i.__0vfprintf$2) refers to printf2.o(i._printf_core) for _printf_core
    printf2.o(i.__0vfprintf$2) refers to bsp_uart_fifo.o(i.fputc) for fputc
    printf2.o(i.__0vprintf$2) refers to printf2.o(i._printf_core) for _printf_core
    printf2.o(i.__0vprintf$2) refers to bsp_uart_fifo.o(i.fputc) for fputc
    printf2.o(i.__0vprintf$2) refers to stdout.o(.data) for __stdout
    printf2.o(i.__0vsnprintf$2) refers to printf2.o(i._printf_core) for _printf_core
    printf2.o(i.__0vsnprintf$2) refers to printf2.o(i._snputc) for _snputc
    printf2.o(i.__0vsprintf$2) refers to printf2.o(i._printf_core) for _printf_core
    printf2.o(i.__0vsprintf$2) refers to printf2.o(i._sputc) for _sputc
    printf3.o(i.__0fprintf$3) refers to printf3.o(i._printf_core) for _printf_core
    printf3.o(i.__0fprintf$3) refers to bsp_uart_fifo.o(i.fputc) for fputc
    printf3.o(i.__0printf$3) refers to printf3.o(i._printf_core) for _printf_core
    printf3.o(i.__0printf$3) refers to bsp_uart_fifo.o(i.fputc) for fputc
    printf3.o(i.__0printf$3) refers to stdout.o(.data) for __stdout
    printf3.o(i.__0snprintf$3) refers to printf3.o(i._printf_core) for _printf_core
    printf3.o(i.__0snprintf$3) refers to printf3.o(i._snputc) for _snputc
    printf3.o(i.__0sprintf$3) refers to printf3.o(i._printf_core) for _printf_core
    printf3.o(i.__0sprintf$3) refers to printf3.o(i._sputc) for _sputc
    printf3.o(i.__0vfprintf$3) refers to printf3.o(i._printf_core) for _printf_core
    printf3.o(i.__0vfprintf$3) refers to bsp_uart_fifo.o(i.fputc) for fputc
    printf3.o(i.__0vprintf$3) refers to printf3.o(i._printf_core) for _printf_core
    printf3.o(i.__0vprintf$3) refers to bsp_uart_fifo.o(i.fputc) for fputc
    printf3.o(i.__0vprintf$3) refers to stdout.o(.data) for __stdout
    printf3.o(i.__0vsnprintf$3) refers to printf3.o(i._printf_core) for _printf_core
    printf3.o(i.__0vsnprintf$3) refers to printf3.o(i._snputc) for _snputc
    printf3.o(i.__0vsprintf$3) refers to printf3.o(i._printf_core) for _printf_core
    printf3.o(i.__0vsprintf$3) refers to printf3.o(i._sputc) for _sputc
    printf3.o(i._printf_core) refers to uidiv.o(.text) for __aeabi_uidivmod
    printf4.o(i.__0fprintf$4) refers to printf4.o(i._printf_core) for _printf_core
    printf4.o(i.__0fprintf$4) refers to bsp_uart_fifo.o(i.fputc) for fputc
    printf4.o(i.__0printf$4) refers to printf4.o(i._printf_core) for _printf_core
    printf4.o(i.__0printf$4) refers to bsp_uart_fifo.o(i.fputc) for fputc
    printf4.o(i.__0printf$4) refers to stdout.o(.data) for __stdout
    printf4.o(i.__0snprintf$4) refers to printf4.o(i._printf_core) for _printf_core
    printf4.o(i.__0snprintf$4) refers to printf4.o(i._snputc) for _snputc
    printf4.o(i.__0sprintf$4) refers to printf4.o(i._printf_core) for _printf_core
    printf4.o(i.__0sprintf$4) refers to printf4.o(i._sputc) for _sputc
    printf4.o(i.__0vfprintf$4) refers to printf4.o(i._printf_core) for _printf_core
    printf4.o(i.__0vfprintf$4) refers to bsp_uart_fifo.o(i.fputc) for fputc
    printf4.o(i.__0vprintf$4) refers to printf4.o(i._printf_core) for _printf_core
    printf4.o(i.__0vprintf$4) refers to bsp_uart_fifo.o(i.fputc) for fputc
    printf4.o(i.__0vprintf$4) refers to stdout.o(.data) for __stdout
    printf4.o(i.__0vsnprintf$4) refers to printf4.o(i._printf_core) for _printf_core
    printf4.o(i.__0vsnprintf$4) refers to printf4.o(i._snputc) for _snputc
    printf4.o(i.__0vsprintf$4) refers to printf4.o(i._printf_core) for _printf_core
    printf4.o(i.__0vsprintf$4) refers to printf4.o(i._sputc) for _sputc
    printf4.o(i._printf_core) refers to uldiv.o(.text) for __aeabi_uldivmod
    printf5.o(i.__0fprintf$5) refers to printf5.o(i._printf_core) for _printf_core
    printf5.o(i.__0fprintf$5) refers to bsp_uart_fifo.o(i.fputc) for fputc
    printf5.o(i.__0printf$5) refers to printf5.o(i._printf_core) for _printf_core
    printf5.o(i.__0printf$5) refers to bsp_uart_fifo.o(i.fputc) for fputc
    printf5.o(i.__0printf$5) refers to stdout.o(.data) for __stdout
    printf5.o(i.__0snprintf$5) refers to printf5.o(i._printf_core) for _printf_core
    printf5.o(i.__0snprintf$5) refers to printf5.o(i._snputc) for _snputc
    printf5.o(i.__0sprintf$5) refers to printf5.o(i._printf_core) for _printf_core
    printf5.o(i.__0sprintf$5) refers to printf5.o(i._sputc) for _sputc
    printf5.o(i.__0vfprintf$5) refers to printf5.o(i._printf_core) for _printf_core
    printf5.o(i.__0vfprintf$5) refers to bsp_uart_fifo.o(i.fputc) for fputc
    printf5.o(i.__0vprintf$5) refers to printf5.o(i._printf_core) for _printf_core
    printf5.o(i.__0vprintf$5) refers to bsp_uart_fifo.o(i.fputc) for fputc
    printf5.o(i.__0vprintf$5) refers to stdout.o(.data) for __stdout
    printf5.o(i.__0vsnprintf$5) refers to printf5.o(i._printf_core) for _printf_core
    printf5.o(i.__0vsnprintf$5) refers to printf5.o(i._snputc) for _snputc
    printf5.o(i.__0vsprintf$5) refers to printf5.o(i._printf_core) for _printf_core
    printf5.o(i.__0vsprintf$5) refers to printf5.o(i._sputc) for _sputc
    printf5.o(i._printf_core) refers to uldiv.o(.text) for __aeabi_uldivmod
    printf6.o(i.__0fprintf$6) refers to printf6.o(i._printf_core) for _printf_core
    printf6.o(i.__0fprintf$6) refers to bsp_uart_fifo.o(i.fputc) for fputc
    printf6.o(i.__0printf$6) refers to printf6.o(i._printf_core) for _printf_core
    printf6.o(i.__0printf$6) refers to bsp_uart_fifo.o(i.fputc) for fputc
    printf6.o(i.__0printf$6) refers to stdout.o(.data) for __stdout
    printf6.o(i.__0snprintf$6) refers to printf6.o(i._printf_core) for _printf_core
    printf6.o(i.__0snprintf$6) refers to printf6.o(i._snputc) for _snputc
    printf6.o(i.__0sprintf$6) refers to printf6.o(i._printf_core) for _printf_core
    printf6.o(i.__0sprintf$6) refers to printf6.o(i._sputc) for _sputc
    printf6.o(i.__0vfprintf$6) refers to printf6.o(i._printf_core) for _printf_core
    printf6.o(i.__0vfprintf$6) refers to bsp_uart_fifo.o(i.fputc) for fputc
    printf6.o(i.__0vprintf$6) refers to printf6.o(i._printf_core) for _printf_core
    printf6.o(i.__0vprintf$6) refers to bsp_uart_fifo.o(i.fputc) for fputc
    printf6.o(i.__0vprintf$6) refers to stdout.o(.data) for __stdout
    printf6.o(i.__0vsnprintf$6) refers to printf6.o(i._printf_core) for _printf_core
    printf6.o(i.__0vsnprintf$6) refers to printf6.o(i._snputc) for _snputc
    printf6.o(i.__0vsprintf$6) refers to printf6.o(i._printf_core) for _printf_core
    printf6.o(i.__0vsprintf$6) refers to printf6.o(i._sputc) for _sputc
    printf6.o(i._printf_core) refers to printf6.o(i._printf_pre_padding) for _printf_pre_padding
    printf6.o(i._printf_core) refers to uidiv.o(.text) for __aeabi_uidivmod
    printf6.o(i._printf_core) refers to printf6.o(i._printf_post_padding) for _printf_post_padding
    printf7.o(i.__0fprintf$7) refers to printf7.o(i._printf_core) for _printf_core
    printf7.o(i.__0fprintf$7) refers to bsp_uart_fifo.o(i.fputc) for fputc
    printf7.o(i.__0printf$7) refers to printf7.o(i._printf_core) for _printf_core
    printf7.o(i.__0printf$7) refers to bsp_uart_fifo.o(i.fputc) for fputc
    printf7.o(i.__0printf$7) refers to stdout.o(.data) for __stdout
    printf7.o(i.__0snprintf$7) refers to printf7.o(i._printf_core) for _printf_core
    printf7.o(i.__0snprintf$7) refers to printf7.o(i._snputc) for _snputc
    printf7.o(i.__0sprintf$7) refers to printf7.o(i._printf_core) for _printf_core
    printf7.o(i.__0sprintf$7) refers to printf7.o(i._sputc) for _sputc
    printf7.o(i.__0vfprintf$7) refers to printf7.o(i._printf_core) for _printf_core
    printf7.o(i.__0vfprintf$7) refers to bsp_uart_fifo.o(i.fputc) for fputc
    printf7.o(i.__0vprintf$7) refers to printf7.o(i._printf_core) for _printf_core
    printf7.o(i.__0vprintf$7) refers to bsp_uart_fifo.o(i.fputc) for fputc
    printf7.o(i.__0vprintf$7) refers to stdout.o(.data) for __stdout
    printf7.o(i.__0vsnprintf$7) refers to printf7.o(i._printf_core) for _printf_core
    printf7.o(i.__0vsnprintf$7) refers to printf7.o(i._snputc) for _snputc
    printf7.o(i.__0vsprintf$7) refers to printf7.o(i._printf_core) for _printf_core
    printf7.o(i.__0vsprintf$7) refers to printf7.o(i._sputc) for _sputc
    printf7.o(i._printf_core) refers to printf7.o(i._printf_pre_padding) for _printf_pre_padding
    printf7.o(i._printf_core) refers to uldiv.o(.text) for __aeabi_uldivmod
    printf7.o(i._printf_core) refers to printf7.o(i._printf_post_padding) for _printf_post_padding
    printf8.o(i.__0fprintf$8) refers to printf8.o(i._printf_core) for _printf_core
    printf8.o(i.__0fprintf$8) refers to bsp_uart_fifo.o(i.fputc) for fputc
    printf8.o(i.__0printf$8) refers to printf8.o(i._printf_core) for _printf_core
    printf8.o(i.__0printf$8) refers to bsp_uart_fifo.o(i.fputc) for fputc
    printf8.o(i.__0printf$8) refers to stdout.o(.data) for __stdout
    printf8.o(i.__0snprintf$8) refers to printf8.o(i._printf_core) for _printf_core
    printf8.o(i.__0snprintf$8) refers to printf8.o(i._snputc) for _snputc
    printf8.o(i.__0sprintf$8) refers to printf8.o(i._printf_core) for _printf_core
    printf8.o(i.__0sprintf$8) refers to printf8.o(i._sputc) for _sputc
    printf8.o(i.__0vfprintf$8) refers to printf8.o(i._printf_core) for _printf_core
    printf8.o(i.__0vfprintf$8) refers to bsp_uart_fifo.o(i.fputc) for fputc
    printf8.o(i.__0vprintf$8) refers to printf8.o(i._printf_core) for _printf_core
    printf8.o(i.__0vprintf$8) refers to bsp_uart_fifo.o(i.fputc) for fputc
    printf8.o(i.__0vprintf$8) refers to stdout.o(.data) for __stdout
    printf8.o(i.__0vsnprintf$8) refers to printf8.o(i._printf_core) for _printf_core
    printf8.o(i.__0vsnprintf$8) refers to printf8.o(i._snputc) for _snputc
    printf8.o(i.__0vsprintf$8) refers to printf8.o(i._printf_core) for _printf_core
    printf8.o(i.__0vsprintf$8) refers to printf8.o(i._sputc) for _sputc
    printf8.o(i._printf_core) refers to printf8.o(i._printf_pre_padding) for _printf_pre_padding
    printf8.o(i._printf_core) refers to uldiv.o(.text) for __aeabi_uldivmod
    printf8.o(i._printf_core) refers to printf8.o(i._printf_post_padding) for _printf_post_padding
    printfa.o(i.__0fprintf) refers (Special) to iusefp.o(.text) for __I$use$fp
    printfa.o(i.__0fprintf) refers to printfa.o(i._printf_core) for _printf_core
    printfa.o(i.__0fprintf) refers to bsp_uart_fifo.o(i.fputc) for fputc
    printfa.o(i.__0printf) refers (Special) to iusefp.o(.text) for __I$use$fp
    printfa.o(i.__0printf) refers to printfa.o(i._printf_core) for _printf_core
    printfa.o(i.__0printf) refers to bsp_uart_fifo.o(i.fputc) for fputc
    printfa.o(i.__0printf) refers to stdout.o(.data) for __stdout
    printfa.o(i.__0snprintf) refers (Special) to iusefp.o(.text) for __I$use$fp
    printfa.o(i.__0snprintf) refers to printfa.o(i._printf_core) for _printf_core
    printfa.o(i.__0snprintf) refers to printfa.o(i._snputc) for _snputc
    printfa.o(i.__0sprintf) refers (Special) to iusefp.o(.text) for __I$use$fp
    printfa.o(i.__0sprintf) refers to printfa.o(i._printf_core) for _printf_core
    printfa.o(i.__0sprintf) refers to printfa.o(i._sputc) for _sputc
    printfa.o(i.__0vfprintf) refers (Special) to iusefp.o(.text) for __I$use$fp
    printfa.o(i.__0vfprintf) refers to printfa.o(i._printf_core) for _printf_core
    printfa.o(i.__0vfprintf) refers to bsp_uart_fifo.o(i.fputc) for fputc
    printfa.o(i.__0vprintf) refers (Special) to iusefp.o(.text) for __I$use$fp
    printfa.o(i.__0vprintf) refers to printfa.o(i._printf_core) for _printf_core
    printfa.o(i.__0vprintf) refers to bsp_uart_fifo.o(i.fputc) for fputc
    printfa.o(i.__0vprintf) refers to stdout.o(.data) for __stdout
    printfa.o(i.__0vsnprintf) refers (Special) to iusefp.o(.text) for __I$use$fp
    printfa.o(i.__0vsnprintf) refers to printfa.o(i._printf_core) for _printf_core
    printfa.o(i.__0vsnprintf) refers to printfa.o(i._snputc) for _snputc
    printfa.o(i.__0vsprintf) refers (Special) to iusefp.o(.text) for __I$use$fp
    printfa.o(i.__0vsprintf) refers to printfa.o(i._printf_core) for _printf_core
    printfa.o(i.__0vsprintf) refers to printfa.o(i._sputc) for _sputc
    printfa.o(i._fp_digits) refers (Special) to iusefp.o(.text) for __I$use$fp
    printfa.o(i._fp_digits) refers to dmul.o(.text) for __aeabi_dmul
    printfa.o(i._fp_digits) refers to ddiv.o(.text) for __aeabi_ddiv
    printfa.o(i._fp_digits) refers to cdrcmple.o(.text) for __aeabi_cdrcmple
    printfa.o(i._fp_digits) refers to dadd.o(.text) for __aeabi_dadd
    printfa.o(i._fp_digits) refers to dfixul.o(.text) for __aeabi_d2ulz
    printfa.o(i._fp_digits) refers to uldiv.o(.text) for __aeabi_uldivmod
    printfa.o(i._printf_core) refers (Special) to iusefp.o(.text) for __I$use$fp
    printfa.o(i._printf_core) refers to printfa.o(i._printf_pre_padding) for _printf_pre_padding
    printfa.o(i._printf_core) refers to uldiv.o(.text) for __aeabi_uldivmod
    printfa.o(i._printf_core) refers to printfa.o(i._printf_post_padding) for _printf_post_padding
    printfa.o(i._printf_core) refers to printfa.o(i._fp_digits) for _fp_digits
    printfa.o(i._printf_core) refers to uidiv.o(.text) for __aeabi_uidivmod
    printfa.o(i._printf_post_padding) refers (Special) to iusefp.o(.text) for __I$use$fp
    printfa.o(i._printf_pre_padding) refers (Special) to iusefp.o(.text) for __I$use$fp
    printfa.o(i._snputc) refers (Special) to iusefp.o(.text) for __I$use$fp
    printfa.o(i._sputc) refers (Special) to iusefp.o(.text) for __I$use$fp
    __0sscanf.o(.text) refers to scanf_char.o(.text) for __vfscanf_char
    __0sscanf.o(.text) refers to _sgetc.o(.text) for _sgetc
    _scanf_int.o(.text) refers to _chval.o(.text) for _chval
    fmul.o(.text) refers (Special) to iusefp.o(.text) for __I$use$fp
    fdiv.o(.text) refers (Special) to iusefp.o(.text) for __I$use$fp
    fdiv.o(.text) refers to fepilogue.o(.text) for _float_round
    dmul.o(.text) refers (Special) to iusefp.o(.text) for __I$use$fp
    dmul.o(.text) refers to depilogue.o(.text) for _double_epilogue
    ddiv.o(.text) refers (Special) to iusefp.o(.text) for __I$use$fp
    ddiv.o(.text) refers to depilogue.o(.text) for _double_round
    ffltui.o(.text) refers (Special) to iusefp.o(.text) for __I$use$fp
    ffltui.o(.text) refers to fepilogue.o(.text) for _float_epilogue
    ffixui.o(.text) refers (Special) to iusefp.o(.text) for __I$use$fp
    f2d.o(.text) refers (Special) to iusefp.o(.text) for __I$use$fp
    d2f.o(.text) refers (Special) to iusefp.o(.text) for __I$use$fp
    d2f.o(.text) refers to fepilogue.o(.text) for _float_round
    entry2.o(.ARM.Collect$$$$00000001) refers to entry2.o(.ARM.Collect$$$$00002712) for __lit__00000000
    entry2.o(.ARM.Collect$$$$00002712) refers to startup_stm32f10x_hd.o(STACK) for __initial_sp
    entry2.o(__vectab_stack_and_reset_area) refers to startup_stm32f10x_hd.o(STACK) for __initial_sp
    entry2.o(__vectab_stack_and_reset_area) refers to entry.o(.ARM.Collect$$$$00000000) for __main
    entry5.o(.ARM.Collect$$$$00000004) refers to init.o(.text) for __scatterload
    entry9a.o(.ARM.Collect$$$$0000000B) refers to main.o(i.main) for main
    entry9b.o(.ARM.Collect$$$$0000000C) refers to main.o(i.main) for main
    uldiv.o(.text) refers to llushr.o(.text) for __aeabi_llsr
    uldiv.o(.text) refers to llshl.o(.text) for __aeabi_llsl
    scanf_char.o(.text) refers to _scanf.o(.text) for __vfscanf
    scanf_char.o(.text) refers to isspace_c.o(.text) for isspace
    depilogue.o(.text) refers to llshl.o(.text) for __aeabi_llsl
    depilogue.o(.text) refers to llushr.o(.text) for __aeabi_llsr
    dadd.o(.text) refers to llshl.o(.text) for __aeabi_llsl
    dadd.o(.text) refers to llsshr.o(.text) for __aeabi_lasr
    dadd.o(.text) refers to depilogue.o(.text) for _double_epilogue
    dfixul.o(.text) refers to llushr.o(.text) for __aeabi_llsr
    dfixul.o(.text) refers to llshl.o(.text) for __aeabi_llsl
    init.o(.text) refers to entry5.o(.ARM.Collect$$$$00000004) for __main_after_scatterload
    isspace_c.o(.text) refers to ctype_c.o(.text) for __ctype_lookup
    _scanf.o(.text) refers (Weak) to _scanf_int.o(.text) for _scanf_int
    ctype_c.o(.text) refers to ctype_c.o(.constdata) for .constdata


==============================================================================

Removing Unused input sections from the image.

    Removing main.o(.rev16_text), (4 bytes).
    Removing main.o(.revsh_text), (4 bytes).
    Removing main.o(i.BLE_Test), (48 bytes).
    Removing main.o(i.P_GetMsgFromUart), (110 bytes).
    Removing bsp_motor.o(.rev16_text), (4 bytes).
    Removing bsp_motor.o(.revsh_text), (4 bytes).
    Removing bsp_motor.o(i.Pulse_outputT1T2), (14 bytes).
    Removing bsp_motor.o(i.TIM2_config), (96 bytes).
    Removing bsp_motor.o(i.pulse_set_f), (48 bytes).
    Removing bsp_motor.o(i.pulse_start), (16 bytes).
    Removing bsp_motor.o(i.pulse_stop), (2 bytes).
    Removing bsp_uart_lcd.o(.rev16_text), (4 bytes).
    Removing bsp_uart_lcd.o(.revsh_text), (4 bytes).
    Removing bsp_uart_lcd.o(i.LCD_GetScreenId), (12 bytes).
    Removing filter.o(.rev16_text), (4 bytes).
    Removing filter.o(.revsh_text), (4 bytes).
    Removing debug.o(.rev16_text), (4 bytes).
    Removing debug.o(.revsh_text), (4 bytes).
    Removing debug.o(i.debug_at), (24 bytes).
    Removing debug.o(i.debug_usr_hex), (28 bytes).
    Removing debug.o(.bss), (200 bytes).
    Removing save2flash.o(.rev16_text), (4 bytes).
    Removing save2flash.o(.revsh_text), (4 bytes).
    Removing save2flash.o(i.Msg_Read), (70 bytes).
    Removing save2flash.o(i.Msg_Write), (116 bytes).
    Removing save2flash.o(i.Msg_WriteNoCheck), (76 bytes).
    Removing save2flash.o(i.ReadMsgToRam), (140 bytes).
    Removing save2flash.o(i.SaveMsgToFlash), (168 bytes).
    Removing save2flash.o(i.bkd_read), (60 bytes).
    Removing save2flash.o(i.bkd_save), (32 bytes).
    Removing save2flash.o(i.msg_get_num), (20 bytes).
    Removing save2flash.o(.data), (12 bytes).
    Removing eeprom.o(.rev16_text), (4 bytes).
    Removing eeprom.o(.revsh_text), (4 bytes).
    Removing eeprom.o(i.EE_FindValidPage), (88 bytes).
    Removing eeprom.o(i.EE_Format), (60 bytes).
    Removing eeprom.o(i.EE_Init), (508 bytes).
    Removing eeprom.o(i.EE_PageTransfer), (244 bytes).
    Removing eeprom.o(i.EE_ReadVariable), (100 bytes).
    Removing eeprom.o(i.EE_VerifyPageFullWriteVariable), (112 bytes).
    Removing eeprom.o(i.EE_WriteVariable), (36 bytes).
    Removing eeprom.o(.bss), (200 bytes).
    Removing eeprom.o(.data), (2 bytes).
    Removing bsp.o(.rev16_text), (4 bytes).
    Removing bsp.o(.revsh_text), (4 bytes).
    Removing bsp.o(.bss), (200 bytes).
    Removing bsp_key.o(.rev16_text), (4 bytes).
    Removing bsp_key.o(.revsh_text), (4 bytes).
    Removing bsp_key.o(i.bsp_ClearKey), (16 bytes).
    Removing bsp_key.o(i.bsp_GetKey2), (52 bytes).
    Removing bsp_key.o(i.bsp_SetKeyParam), (36 bytes).
    Removing bsp_led.o(.rev16_text), (4 bytes).
    Removing bsp_led.o(.revsh_text), (4 bytes).
    Removing bsp_led.o(i.bsp_IsLedOn), (100 bytes).
    Removing bsp_led.o(i.bsp_LedOn), (60 bytes).
    Removing bsp_led.o(i.bsp_LedToggle), (76 bytes).
    Removing bsp_led.o(.bss), (200 bytes).
    Removing bsp_uart_fifo.o(.rev16_text), (4 bytes).
    Removing bsp_uart_fifo.o(.revsh_text), (4 bytes).
    Removing bsp_uart_fifo.o(i.RS485_ReciveNew), (2 bytes).
    Removing bsp_uart_fifo.o(i.RS485_SendBefor), (12 bytes).
    Removing bsp_uart_fifo.o(i.RS485_SendBuf), (18 bytes).
    Removing bsp_uart_fifo.o(i.RS485_SendOver), (12 bytes).
    Removing bsp_uart_fifo.o(i.RS485_SendStr), (22 bytes).
    Removing bsp_uart_fifo.o(i.bsp_Set485Baud), (44 bytes).
    Removing bsp_uart_fifo.o(i.bsp_SetUart1Baud), (44 bytes).
    Removing bsp_uart_fifo.o(i.bsp_SetUart2Baud), (44 bytes).
    Removing bsp_uart_fifo.o(i.comClearRxFifo), (28 bytes).
    Removing bsp_uart_fifo.o(i.comClearTxFifo), (28 bytes).
    Removing bsp_uart_fifo.o(i.comGetALine), (106 bytes).
    Removing bsp_uart_fifo.o(i.comSendChar), (16 bytes).
    Removing bsp_uart_fifo.o(i.comSendCharHex), (44 bytes).
    Removing bsp_uart_fifo.o(i.fgetc), (32 bytes).
    Removing bsp_uart_fifo.o(.data), (17 bytes).
    Removing stm32f10x_it.o(.rev16_text), (4 bytes).
    Removing stm32f10x_it.o(.revsh_text), (4 bytes).
    Removing stm32f10x_assert.o(.rev16_text), (4 bytes).
    Removing stm32f10x_assert.o(.revsh_text), (4 bytes).
    Removing bsp_beep.o(.rev16_text), (4 bytes).
    Removing bsp_beep.o(.revsh_text), (4 bytes).
    Removing bsp_beep.o(i.BEEP_KeyTone), (14 bytes).
    Removing bsp_beep.o(i.BEEP_Pro), (168 bytes).
    Removing bsp_beep.o(i.BEEP_Start), (48 bytes).
    Removing bsp_beep.o(i.BEEP_Stop), (24 bytes).
    Removing bsp_beep.o(.bss), (212 bytes).
    Removing bsp_simple_timer.o(.rev16_text), (4 bytes).
    Removing bsp_simple_timer.o(.revsh_text), (4 bytes).
    Removing bsp_simple_timer.o(.bss), (200 bytes).
    Removing bsp_adc_int.o(.rev16_text), (4 bytes).
    Removing bsp_adc_int.o(.revsh_text), (4 bytes).
    Removing bsp_adc_int.o(.bss), (200 bytes).
    Removing bsp_dwt.o(.rev16_text), (4 bytes).
    Removing bsp_dwt.o(.revsh_text), (4 bytes).
    Removing bsp_dwt.o(.bss), (200 bytes).
    Removing bsp_ble.o(.rev16_text), (4 bytes).
    Removing bsp_ble.o(.revsh_text), (4 bytes).
    Removing bsp_ble.o(i.BLE_CheckState), (52 bytes).
    Removing bsp_ble.o(i.BLE_GetMsg), (96 bytes).
    Removing bsp_ble.o(i.BLE_GetSendMsg), (26 bytes).
    Removing bsp_ble.o(i.BLE_PapaInit), (556 bytes).
    Removing bsp_ble.o(i.BLE_Pares), (6 bytes).
    Removing bsp_ble.o(i.BLE_ReportState), (76 bytes).
    Removing bsp_ble.o(i.BLE_Send), (22 bytes).
    Removing bsp_ble.o(i.BLE_Sleep), (252 bytes).
    Removing bsp_ble.o(i.BLE_WakeUp), (80 bytes).
    Removing bsp_ble.o(i.ble_check_pwd), (34 bytes).
    Removing bsp_ble.o(i.ble_check_token), (34 bytes).
    Removing bsp_ble.o(i.ble_cmd), (180 bytes).
    Removing bsp_ble.o(i.ble_find_one_meg), (82 bytes).
    Removing bsp_ble.o(i.ble_get_mac), (208 bytes).
    Removing bsp_ble.o(i.ble_get_token), (76 bytes).
    Removing bsp_ble.o(i.ble_wait_ack), (136 bytes).
    Removing bsp_ble.o(i.hexncmp), (34 bytes).
    Removing cmd_queue.o(.rev16_text), (4 bytes).
    Removing cmd_queue.o(.revsh_text), (4 bytes).
    Removing cmd_queue.o(.bss), (200 bytes).
    Removing hmi_driver.o(.rev16_text), (4 bytes).
    Removing hmi_driver.o(.revsh_text), (4 bytes).
    Removing hmi_driver.o(i.AnimationPause), (74 bytes).
    Removing hmi_driver.o(i.AnimationPlayNext), (74 bytes).
    Removing hmi_driver.o(i.AnimationPlayPrev), (74 bytes).
    Removing hmi_driver.o(i.AnimationStart), (74 bytes).
    Removing hmi_driver.o(i.AnimationStop), (74 bytes).
    Removing hmi_driver.o(i.BatchBegin), (36 bytes).
    Removing hmi_driver.o(i.BatchEnd), (28 bytes).
    Removing hmi_driver.o(i.BatchSetButtonValue), (38 bytes).
    Removing hmi_driver.o(i.BatchSetEnable), (32 bytes).
    Removing hmi_driver.o(i.BatchSetFrame), (44 bytes).
    Removing hmi_driver.o(i.BatchSetMeterValue), (60 bytes).
    Removing hmi_driver.o(i.BatchSetProgressValue), (60 bytes).
    Removing hmi_driver.o(i.BatchSetSliderValue), (60 bytes).
    Removing hmi_driver.o(i.BatchSetText), (56 bytes).
    Removing hmi_driver.o(i.BatchSetVisible), (32 bytes).
    Removing hmi_driver.o(i.CalibrateTouchPane), (40 bytes).
    Removing hmi_driver.o(i.ClearLayer), (48 bytes).
    Removing hmi_driver.o(i.ColorPicker), (76 bytes).
    Removing hmi_driver.o(i.CopyLayer), (56 bytes).
    Removing hmi_driver.o(i.DelayMS), (24 bytes).
    Removing hmi_driver.o(i.DisArea_Image), (94 bytes).
    Removing hmi_driver.o(i.DisCursor), (100 bytes).
    Removing hmi_driver.o(i.DisCut_Image), (164 bytes).
    Removing hmi_driver.o(i.DisFlashImage), (106 bytes).
    Removing hmi_driver.o(i.DisFull_Image), (62 bytes).
    Removing hmi_driver.o(i.DisText), (98 bytes).
    Removing hmi_driver.o(i.DisplyLayer), (48 bytes).
    Removing hmi_driver.o(i.FlashBeginSaveControl), (82 bytes).
    Removing hmi_driver.o(i.FlashEndSaveControl), (28 bytes).
    Removing hmi_driver.o(i.FlashRestoreControl), (106 bytes).
    Removing hmi_driver.o(i.FlashSaveControl), (32 bytes).
    Removing hmi_driver.o(i.GUI_Arc), (120 bytes).
    Removing hmi_driver.o(i.GUI_AreaInycolor), (100 bytes).
    Removing hmi_driver.o(i.GUI_BcolorConDots), (58 bytes).
    Removing hmi_driver.o(i.GUI_BcolorConOffsetDots), (84 bytes).
    Removing hmi_driver.o(i.GUI_Circle), (82 bytes).
    Removing hmi_driver.o(i.GUI_CircleFill), (82 bytes).
    Removing hmi_driver.o(i.GUI_CleanScreen), (40 bytes).
    Removing hmi_driver.o(i.GUI_ConDots), (66 bytes).
    Removing hmi_driver.o(i.GUI_ConSpaceDots), (84 bytes).
    Removing hmi_driver.o(i.GUI_DispRTC), (118 bytes).
    Removing hmi_driver.o(i.GUI_Dot), (68 bytes).
    Removing hmi_driver.o(i.GUI_Ellipse), (100 bytes).
    Removing hmi_driver.o(i.GUI_EllipseFill), (100 bytes).
    Removing hmi_driver.o(i.GUI_FcolorConDots), (58 bytes).
    Removing hmi_driver.o(i.GUI_FcolorConOffsetDots), (84 bytes).
    Removing hmi_driver.o(i.GUI_Line), (100 bytes).
    Removing hmi_driver.o(i.GUI_Rectangle), (100 bytes).
    Removing hmi_driver.o(i.GUI_RectangleFill), (100 bytes).
    Removing hmi_driver.o(i.GetControlValue), (74 bytes).
    Removing hmi_driver.o(i.GetScreen), (48 bytes).
    Removing hmi_driver.o(i.GetStringLen), (18 bytes).
    Removing hmi_driver.o(i.GraphChannelAdd), (100 bytes).
    Removing hmi_driver.o(i.GraphChannelDataAdd), (110 bytes).
    Removing hmi_driver.o(i.GraphChannelDataClear), (82 bytes).
    Removing hmi_driver.o(i.GraphChannelDel), (82 bytes).
    Removing hmi_driver.o(i.GraphSetViewport), (144 bytes).
    Removing hmi_driver.o(i.HistoryGraph_EnableSampling), (82 bytes).
    Removing hmi_driver.o(i.HistoryGraph_SetTimeFullScreen), (80 bytes).
    Removing hmi_driver.o(i.HistoryGraph_SetTimeLength), (94 bytes).
    Removing hmi_driver.o(i.HistoryGraph_SetTimeZoom), (132 bytes).
    Removing hmi_driver.o(i.HistoryGraph_SetValueFloat), (128 bytes).
    Removing hmi_driver.o(i.HistoryGraph_SetValueInt16), (90 bytes).
    Removing hmi_driver.o(i.HistoryGraph_SetValueInt32), (136 bytes).
    Removing hmi_driver.o(i.HistoryGraph_SetValueInt8), (90 bytes).
    Removing hmi_driver.o(i.HistoryGraph_ShowChannel), (94 bytes).
    Removing hmi_driver.o(i.LockDeviceConfig), (64 bytes).
    Removing hmi_driver.o(i.PauseTimer), (74 bytes).
    Removing hmi_driver.o(i.ReadRTC), (40 bytes).
    Removing hmi_driver.o(i.ReadUserFlash), (84 bytes).
    Removing hmi_driver.o(i.Record_Add), (82 bytes).
    Removing hmi_driver.o(i.Record_Clear), (74 bytes).
    Removing hmi_driver.o(i.Record_GetCount), (74 bytes).
    Removing hmi_driver.o(i.Record_ResetEvent), (126 bytes).
    Removing hmi_driver.o(i.Record_SetEvent), (126 bytes).
    Removing hmi_driver.o(i.Record_SetOffset), (88 bytes).
    Removing hmi_driver.o(i.SeTimer), (104 bytes).
    Removing hmi_driver.o(i.SendNU16), (38 bytes).
    Removing hmi_driver.o(i.SendNU8), (26 bytes).
    Removing hmi_driver.o(i.SetBackLight), (48 bytes).
    Removing hmi_driver.o(i.SetBcolor), (54 bytes).
    Removing hmi_driver.o(i.SetCommBps), (48 bytes).
    Removing hmi_driver.o(i.SetControlBackColor), (88 bytes).
    Removing hmi_driver.o(i.SetControlFocus), (82 bytes).
    Removing hmi_driver.o(i.SetControlForeColor), (88 bytes).
    Removing hmi_driver.o(i.SetFcolor), (54 bytes).
    Removing hmi_driver.o(i.SetFilterColor), (68 bytes).
    Removing hmi_driver.o(i.SetFont_Region), (76 bytes).
    Removing hmi_driver.o(i.SetHandShake), (40 bytes).
    Removing hmi_driver.o(i.SetLanguage), (68 bytes).
    Removing hmi_driver.o(i.SetMeterValue), (104 bytes).
    Removing hmi_driver.o(i.SetPowerSaving), (76 bytes).
    Removing hmi_driver.o(i.SetScreen), (60 bytes).
    Removing hmi_driver.o(i.SetScreenUpdateEnable), (48 bytes).
    Removing hmi_driver.o(i.SetSelectorValue), (82 bytes).
    Removing hmi_driver.o(i.SetSliderValue), (104 bytes).
    Removing hmi_driver.o(i.SetTextFloat), (140 bytes).
    Removing hmi_driver.o(i.SetTextSpace), (56 bytes).
    Removing hmi_driver.o(i.SetTouchPaneOption), (92 bytes).
    Removing hmi_driver.o(i.Set_picMeterValue), (88 bytes).
    Removing hmi_driver.o(i.ShowKeyboard), (108 bytes).
    Removing hmi_driver.o(i.ShowPopupMenu), (100 bytes).
    Removing hmi_driver.o(i.StartTimer), (74 bytes).
    Removing hmi_driver.o(i.StopTimer), (74 bytes).
    Removing hmi_driver.o(i.TestTouchPane), (40 bytes).
    Removing hmi_driver.o(i.UnlockDeviceConfig), (64 bytes).
    Removing hmi_driver.o(i.WriteLayer), (48 bytes).
    Removing hmi_driver.o(i.WriteUserFlash), (82 bytes).
    Removing hmi_user_uart.o(.rev16_text), (4 bytes).
    Removing hmi_user_uart.o(.revsh_text), (4 bytes).
    Removing hmi_user_uart.o(i.UartInit), (2 bytes).
    Removing ulitity.o(.rev16_text), (4 bytes).
    Removing ulitity.o(.revsh_text), (4 bytes).
    Removing ulitity.o(i.systicket_init), (96 bytes).
    Removing hw_config.o(.rev16_text), (4 bytes).
    Removing hw_config.o(.revsh_text), (4 bytes).
    Removing hw_config.o(i.Interrupts_Config), (30 bytes).
    Removing hw_config.o(i.Set_System), (102 bytes).
    Removing hw_config.o(.bss), (16 bytes).
    Removing hw_config.o(.data), (1 bytes).
    Removing hx711.o(.rev16_text), (4 bytes).
    Removing hx711.o(.revsh_text), (4 bytes).
    Removing startup_stm32f10x_hd.o(HEAP), (512 bytes).
    Removing misc.o(.rev16_text), (4 bytes).
    Removing misc.o(.revsh_text), (4 bytes).
    Removing misc.o(i.NVIC_SetVectorTable), (20 bytes).
    Removing misc.o(i.NVIC_SystemLPConfig), (32 bytes).
    Removing misc.o(i.SysTick_CLKSourceConfig), (40 bytes).
    Removing stm32f10x_gpio.o(.rev16_text), (4 bytes).
    Removing stm32f10x_gpio.o(.revsh_text), (4 bytes).
    Removing stm32f10x_gpio.o(i.GPIO_AFIODeInit), (20 bytes).
    Removing stm32f10x_gpio.o(i.GPIO_DeInit), (200 bytes).
    Removing stm32f10x_gpio.o(i.GPIO_ETH_MediaInterfaceConfig), (12 bytes).
    Removing stm32f10x_gpio.o(i.GPIO_EXTILineConfig), (64 bytes).
    Removing stm32f10x_gpio.o(i.GPIO_EventOutputCmd), (12 bytes).
    Removing stm32f10x_gpio.o(i.GPIO_EventOutputConfig), (32 bytes).
    Removing stm32f10x_gpio.o(i.GPIO_PinLockConfig), (18 bytes).
    Removing stm32f10x_gpio.o(i.GPIO_PinRemapConfig), (144 bytes).
    Removing stm32f10x_gpio.o(i.GPIO_ReadOutputData), (8 bytes).
    Removing stm32f10x_gpio.o(i.GPIO_ReadOutputDataBit), (18 bytes).
    Removing stm32f10x_gpio.o(i.GPIO_StructInit), (16 bytes).
    Removing stm32f10x_gpio.o(i.GPIO_Write), (4 bytes).
    Removing stm32f10x_gpio.o(i.GPIO_WriteBit), (10 bytes).
    Removing stm32f10x_rcc.o(.rev16_text), (4 bytes).
    Removing stm32f10x_rcc.o(.revsh_text), (4 bytes).
    Removing stm32f10x_rcc.o(i.RCC_ADCCLKConfig), (24 bytes).
    Removing stm32f10x_rcc.o(i.RCC_APB1PeriphResetCmd), (32 bytes).
    Removing stm32f10x_rcc.o(i.RCC_APB2PeriphResetCmd), (32 bytes).
    Removing stm32f10x_rcc.o(i.RCC_AdjustHSICalibrationValue), (24 bytes).
    Removing stm32f10x_rcc.o(i.RCC_BackupResetCmd), (12 bytes).
    Removing stm32f10x_rcc.o(i.RCC_ClearFlag), (20 bytes).
    Removing stm32f10x_rcc.o(i.RCC_ClearITPendingBit), (12 bytes).
    Removing stm32f10x_rcc.o(i.RCC_ClockSecuritySystemCmd), (12 bytes).
    Removing stm32f10x_rcc.o(i.RCC_DeInit), (76 bytes).
    Removing stm32f10x_rcc.o(i.RCC_GetFlagStatus), (60 bytes).
    Removing stm32f10x_rcc.o(i.RCC_GetITStatus), (24 bytes).
    Removing stm32f10x_rcc.o(i.RCC_GetSYSCLKSource), (16 bytes).
    Removing stm32f10x_rcc.o(i.RCC_HCLKConfig), (24 bytes).
    Removing stm32f10x_rcc.o(i.RCC_HSEConfig), (76 bytes).
    Removing stm32f10x_rcc.o(i.RCC_HSICmd), (12 bytes).
    Removing stm32f10x_rcc.o(i.RCC_ITConfig), (32 bytes).
    Removing stm32f10x_rcc.o(i.RCC_LSEConfig), (52 bytes).
    Removing stm32f10x_rcc.o(i.RCC_LSICmd), (12 bytes).
    Removing stm32f10x_rcc.o(i.RCC_MCOConfig), (12 bytes).
    Removing stm32f10x_rcc.o(i.RCC_PCLK1Config), (24 bytes).
    Removing stm32f10x_rcc.o(i.RCC_PCLK2Config), (24 bytes).
    Removing stm32f10x_rcc.o(i.RCC_PLLCmd), (12 bytes).
    Removing stm32f10x_rcc.o(i.RCC_PLLConfig), (28 bytes).
    Removing stm32f10x_rcc.o(i.RCC_RTCCLKCmd), (12 bytes).
    Removing stm32f10x_rcc.o(i.RCC_RTCCLKConfig), (16 bytes).
    Removing stm32f10x_rcc.o(i.RCC_SYSCLKConfig), (24 bytes).
    Removing stm32f10x_rcc.o(i.RCC_USBCLKConfig), (12 bytes).
    Removing stm32f10x_rcc.o(i.RCC_WaitForHSEStartUp), (56 bytes).
    Removing stm32f10x_usart.o(.rev16_text), (4 bytes).
    Removing stm32f10x_usart.o(.revsh_text), (4 bytes).
    Removing stm32f10x_usart.o(i.USART_ClearITPendingBit), (30 bytes).
    Removing stm32f10x_usart.o(i.USART_ClockInit), (34 bytes).
    Removing stm32f10x_usart.o(i.USART_ClockStructInit), (12 bytes).
    Removing stm32f10x_usart.o(i.USART_DMACmd), (18 bytes).
    Removing stm32f10x_usart.o(i.USART_DeInit), (156 bytes).
    Removing stm32f10x_usart.o(i.USART_HalfDuplexCmd), (24 bytes).
    Removing stm32f10x_usart.o(i.USART_IrDACmd), (24 bytes).
    Removing stm32f10x_usart.o(i.USART_IrDAConfig), (18 bytes).
    Removing stm32f10x_usart.o(i.USART_LINBreakDetectLengthConfig), (18 bytes).
    Removing stm32f10x_usart.o(i.USART_LINCmd), (24 bytes).
    Removing stm32f10x_usart.o(i.USART_OneBitMethodCmd), (24 bytes).
    Removing stm32f10x_usart.o(i.USART_OverSampling8Cmd), (22 bytes).
    Removing stm32f10x_usart.o(i.USART_ReceiverWakeUpCmd), (24 bytes).
    Removing stm32f10x_usart.o(i.USART_SendBreak), (10 bytes).
    Removing stm32f10x_usart.o(i.USART_SetAddress), (18 bytes).
    Removing stm32f10x_usart.o(i.USART_SetGuardTime), (16 bytes).
    Removing stm32f10x_usart.o(i.USART_SetPrescaler), (16 bytes).
    Removing stm32f10x_usart.o(i.USART_SmartCardCmd), (24 bytes).
    Removing stm32f10x_usart.o(i.USART_SmartCardNACKCmd), (24 bytes).
    Removing stm32f10x_usart.o(i.USART_StructInit), (24 bytes).
    Removing stm32f10x_usart.o(i.USART_WakeUpConfig), (18 bytes).
    Removing stm32f10x_flash.o(.rev16_text), (4 bytes).
    Removing stm32f10x_flash.o(.revsh_text), (4 bytes).
    Removing stm32f10x_flash.o(i.FLASH_ClearFlag), (12 bytes).
    Removing stm32f10x_flash.o(i.FLASH_EnableWriteProtection), (196 bytes).
    Removing stm32f10x_flash.o(i.FLASH_EraseAllBank1Pages), (72 bytes).
    Removing stm32f10x_flash.o(i.FLASH_EraseAllPages), (72 bytes).
    Removing stm32f10x_flash.o(i.FLASH_EraseOptionBytes), (168 bytes).
    Removing stm32f10x_flash.o(i.FLASH_GetFlagStatus), (48 bytes).
    Removing stm32f10x_flash.o(i.FLASH_GetPrefetchBufferStatus), (24 bytes).
    Removing stm32f10x_flash.o(i.FLASH_GetReadOutProtectionStatus), (24 bytes).
    Removing stm32f10x_flash.o(i.FLASH_GetStatus), (52 bytes).
    Removing stm32f10x_flash.o(i.FLASH_GetUserOptionByte), (12 bytes).
    Removing stm32f10x_flash.o(i.FLASH_GetWriteProtectionOptionByte), (12 bytes).
    Removing stm32f10x_flash.o(i.FLASH_HalfCycleAccessCmd), (28 bytes).
    Removing stm32f10x_flash.o(i.FLASH_ITConfig), (32 bytes).
    Removing stm32f10x_flash.o(i.FLASH_LockBank1), (20 bytes).
    Removing stm32f10x_flash.o(i.FLASH_PrefetchBufferCmd), (28 bytes).
    Removing stm32f10x_flash.o(i.FLASH_ProgramOptionByteData), (84 bytes).
    Removing stm32f10x_flash.o(i.FLASH_ProgramWord), (108 bytes).
    Removing stm32f10x_flash.o(i.FLASH_ReadOutProtection), (172 bytes).
    Removing stm32f10x_flash.o(i.FLASH_SetLatency), (24 bytes).
    Removing stm32f10x_flash.o(i.FLASH_UnlockBank1), (24 bytes).
    Removing stm32f10x_flash.o(i.FLASH_UserOptionByteConfig), (104 bytes).
    Removing stm32f10x_flash.o(i.FLASH_WaitForLastBank1Operation), (38 bytes).
    Removing stm32f10x_tim.o(.rev16_text), (4 bytes).
    Removing stm32f10x_tim.o(.revsh_text), (4 bytes).
    Removing stm32f10x_tim.o(i.TI1_Config), (128 bytes).
    Removing stm32f10x_tim.o(i.TI2_Config), (152 bytes).
    Removing stm32f10x_tim.o(i.TI3_Config), (144 bytes).
    Removing stm32f10x_tim.o(i.TI4_Config), (152 bytes).
    Removing stm32f10x_tim.o(i.TIM_BDTRConfig), (32 bytes).
    Removing stm32f10x_tim.o(i.TIM_BDTRStructInit), (18 bytes).
    Removing stm32f10x_tim.o(i.TIM_CCPreloadControl), (24 bytes).
    Removing stm32f10x_tim.o(i.TIM_CCxCmd), (30 bytes).
    Removing stm32f10x_tim.o(i.TIM_CCxNCmd), (30 bytes).
    Removing stm32f10x_tim.o(i.TIM_ClearFlag), (6 bytes).
    Removing stm32f10x_tim.o(i.TIM_ClearOC1Ref), (18 bytes).
    Removing stm32f10x_tim.o(i.TIM_ClearOC2Ref), (24 bytes).
    Removing stm32f10x_tim.o(i.TIM_ClearOC3Ref), (18 bytes).
    Removing stm32f10x_tim.o(i.TIM_ClearOC4Ref), (24 bytes).
    Removing stm32f10x_tim.o(i.TIM_CounterModeConfig), (18 bytes).
    Removing stm32f10x_tim.o(i.TIM_DMACmd), (18 bytes).
    Removing stm32f10x_tim.o(i.TIM_DMAConfig), (10 bytes).
    Removing stm32f10x_tim.o(i.TIM_DeInit), (488 bytes).
    Removing stm32f10x_tim.o(i.TIM_ETRClockMode1Config), (54 bytes).
    Removing stm32f10x_tim.o(i.TIM_ETRClockMode2Config), (32 bytes).
    Removing stm32f10x_tim.o(i.TIM_ETRConfig), (28 bytes).
    Removing stm32f10x_tim.o(i.TIM_EncoderInterfaceConfig), (66 bytes).
    Removing stm32f10x_tim.o(i.TIM_ForcedOC1Config), (18 bytes).
    Removing stm32f10x_tim.o(i.TIM_ForcedOC2Config), (26 bytes).
    Removing stm32f10x_tim.o(i.TIM_ForcedOC3Config), (18 bytes).
    Removing stm32f10x_tim.o(i.TIM_ForcedOC4Config), (26 bytes).
    Removing stm32f10x_tim.o(i.TIM_GenerateEvent), (4 bytes).
    Removing stm32f10x_tim.o(i.TIM_GetCapture1), (6 bytes).
    Removing stm32f10x_tim.o(i.TIM_GetCapture2), (6 bytes).
    Removing stm32f10x_tim.o(i.TIM_GetCapture3), (6 bytes).
    Removing stm32f10x_tim.o(i.TIM_GetCapture4), (8 bytes).
    Removing stm32f10x_tim.o(i.TIM_GetCounter), (6 bytes).
    Removing stm32f10x_tim.o(i.TIM_GetFlagStatus), (18 bytes).
    Removing stm32f10x_tim.o(i.TIM_GetPrescaler), (6 bytes).
    Removing stm32f10x_tim.o(i.TIM_ICInit), (172 bytes).
    Removing stm32f10x_tim.o(i.TIM_ICStructInit), (18 bytes).
    Removing stm32f10x_tim.o(i.TIM_ITRxExternalClockConfig), (24 bytes).
    Removing stm32f10x_tim.o(i.TIM_InternalClockConfig), (12 bytes).
    Removing stm32f10x_tim.o(i.TIM_OC1FastConfig), (18 bytes).
    Removing stm32f10x_tim.o(i.TIM_OC1Init), (152 bytes).
    Removing stm32f10x_tim.o(i.TIM_OC1NPolarityConfig), (18 bytes).
    Removing stm32f10x_tim.o(i.TIM_OC1PolarityConfig), (18 bytes).
    Removing stm32f10x_tim.o(i.TIM_OC1PreloadConfig), (18 bytes).
    Removing stm32f10x_tim.o(i.TIM_OC2FastConfig), (26 bytes).
    Removing stm32f10x_tim.o(i.TIM_OC2Init), (164 bytes).
    Removing stm32f10x_tim.o(i.TIM_OC2NPolarityConfig), (26 bytes).
    Removing stm32f10x_tim.o(i.TIM_OC2PolarityConfig), (26 bytes).
    Removing stm32f10x_tim.o(i.TIM_OC2PreloadConfig), (26 bytes).
    Removing stm32f10x_tim.o(i.TIM_OC3FastConfig), (18 bytes).
    Removing stm32f10x_tim.o(i.TIM_OC3Init), (160 bytes).
    Removing stm32f10x_tim.o(i.TIM_OC3NPolarityConfig), (26 bytes).
    Removing stm32f10x_tim.o(i.TIM_OC3PolarityConfig), (26 bytes).
    Removing stm32f10x_tim.o(i.TIM_OC3PreloadConfig), (18 bytes).
    Removing stm32f10x_tim.o(i.TIM_OC4FastConfig), (26 bytes).
    Removing stm32f10x_tim.o(i.TIM_OC4PolarityConfig), (26 bytes).
    Removing stm32f10x_tim.o(i.TIM_OCStructInit), (20 bytes).
    Removing stm32f10x_tim.o(i.TIM_PWMIConfig), (124 bytes).
    Removing stm32f10x_tim.o(i.TIM_PrescalerConfig), (6 bytes).
    Removing stm32f10x_tim.o(i.TIM_SelectCCDMA), (24 bytes).
    Removing stm32f10x_tim.o(i.TIM_SelectCOM), (24 bytes).
    Removing stm32f10x_tim.o(i.TIM_SelectHallSensor), (24 bytes).
    Removing stm32f10x_tim.o(i.TIM_SelectInputTrigger), (18 bytes).
    Removing stm32f10x_tim.o(i.TIM_SelectMasterSlaveMode), (18 bytes).
    Removing stm32f10x_tim.o(i.TIM_SelectOCxM), (82 bytes).
    Removing stm32f10x_tim.o(i.TIM_SelectOnePulseMode), (18 bytes).
    Removing stm32f10x_tim.o(i.TIM_SelectSlaveMode), (18 bytes).
    Removing stm32f10x_tim.o(i.TIM_SetClockDivision), (18 bytes).
    Removing stm32f10x_tim.o(i.TIM_SetCompare1), (4 bytes).
    Removing stm32f10x_tim.o(i.TIM_SetCompare2), (4 bytes).
    Removing stm32f10x_tim.o(i.TIM_SetCompare3), (4 bytes).
    Removing stm32f10x_tim.o(i.TIM_SetIC1Prescaler), (18 bytes).
    Removing stm32f10x_tim.o(i.TIM_SetIC2Prescaler), (26 bytes).
    Removing stm32f10x_tim.o(i.TIM_SetIC3Prescaler), (18 bytes).
    Removing stm32f10x_tim.o(i.TIM_SetIC4Prescaler), (26 bytes).
    Removing stm32f10x_tim.o(i.TIM_TIxExternalClockConfig), (62 bytes).
    Removing stm32f10x_tim.o(i.TIM_TimeBaseStructInit), (18 bytes).
    Removing stm32f10x_tim.o(i.TIM_UpdateDisableConfig), (24 bytes).
    Removing stm32f10x_tim.o(i.TIM_UpdateRequestConfig), (24 bytes).
    Removing stm32f10x_adc.o(.rev16_text), (4 bytes).
    Removing stm32f10x_adc.o(.revsh_text), (4 bytes).
    Removing stm32f10x_adc.o(i.ADC_AnalogWatchdogCmd), (20 bytes).
    Removing stm32f10x_adc.o(i.ADC_AnalogWatchdogSingleChannelConfig), (16 bytes).
    Removing stm32f10x_adc.o(i.ADC_AnalogWatchdogThresholdsConfig), (6 bytes).
    Removing stm32f10x_adc.o(i.ADC_AutoInjectedConvCmd), (22 bytes).
    Removing stm32f10x_adc.o(i.ADC_ClearFlag), (6 bytes).
    Removing stm32f10x_adc.o(i.ADC_DMACmd), (22 bytes).
    Removing stm32f10x_adc.o(i.ADC_DeInit), (92 bytes).
    Removing stm32f10x_adc.o(i.ADC_DiscModeChannelCountConfig), (24 bytes).
    Removing stm32f10x_adc.o(i.ADC_DiscModeCmd), (22 bytes).
    Removing stm32f10x_adc.o(i.ADC_ExternalTrigConvCmd), (22 bytes).
    Removing stm32f10x_adc.o(i.ADC_ExternalTrigInjectedConvCmd), (22 bytes).
    Removing stm32f10x_adc.o(i.ADC_ExternalTrigInjectedConvConfig), (16 bytes).
    Removing stm32f10x_adc.o(i.ADC_GetDualModeConversionValue), (12 bytes).
    Removing stm32f10x_adc.o(i.ADC_GetFlagStatus), (18 bytes).
    Removing stm32f10x_adc.o(i.ADC_GetInjectedConversionValue), (28 bytes).
    Removing stm32f10x_adc.o(i.ADC_GetSoftwareStartConvStatus), (20 bytes).
    Removing stm32f10x_adc.o(i.ADC_GetSoftwareStartInjectedConvCmdStatus), (20 bytes).
    Removing stm32f10x_adc.o(i.ADC_InjectedChannelConfig), (130 bytes).
    Removing stm32f10x_adc.o(i.ADC_InjectedDiscModeCmd), (22 bytes).
    Removing stm32f10x_adc.o(i.ADC_InjectedSequencerLengthConfig), (24 bytes).
    Removing stm32f10x_adc.o(i.ADC_SetInjectedOffset), (20 bytes).
    Removing stm32f10x_adc.o(i.ADC_SoftwareStartInjectedConvCmd), (22 bytes).
    Removing stm32f10x_adc.o(i.ADC_StructInit), (18 bytes).
    Removing stm32f10x_adc.o(i.ADC_TempSensorVrefintCmd), (36 bytes).
    Removing system_stm32f10x.o(.rev16_text), (4 bytes).
    Removing system_stm32f10x.o(.revsh_text), (4 bytes).
    Removing system_stm32f10x.o(i.SystemCoreClockUpdate), (164 bytes).
    Removing system_stm32f10x.o(.data), (20 bytes).
    Removing event_groups.o(i.prvTestWaitCondition), (30 bytes).
    Removing event_groups.o(i.vEventGroupClearBitsCallback), (16 bytes).
    Removing event_groups.o(i.vEventGroupDelete), (68 bytes).
    Removing event_groups.o(i.vEventGroupSetBitsCallback), (16 bytes).
    Removing event_groups.o(i.xEventGroupClearBits), (64 bytes).
    Removing event_groups.o(i.xEventGroupCreate), (26 bytes).
    Removing event_groups.o(i.xEventGroupGetBitsFromISR), (28 bytes).
    Removing event_groups.o(i.xEventGroupSetBits), (178 bytes).
    Removing event_groups.o(i.xEventGroupSync), (210 bytes).
    Removing event_groups.o(i.xEventGroupWaitBits), (266 bytes).
    Removing queue.o(i.uxQueueMessagesWaiting), (28 bytes).
    Removing queue.o(i.uxQueueMessagesWaitingFromISR), (20 bytes).
    Removing queue.o(i.uxQueueSpacesAvailable), (34 bytes).
    Removing queue.o(i.vQueueDelete), (24 bytes).
    Removing queue.o(i.xQueueGiveFromISR), (148 bytes).
    Removing queue.o(i.xQueueIsQueueEmptyFromISR), (28 bytes).
    Removing queue.o(i.xQueueIsQueueFullFromISR), (32 bytes).
    Removing queue.o(i.xQueuePeekFromISR), (110 bytes).
    Removing queue.o(i.xQueueReceiveFromISR), (136 bytes).
    Removing tasks.o(i.prvTaskIsTaskSuspended), (76 bytes).
    Removing tasks.o(i.ulTaskNotifyTake), (180 bytes).
    Removing tasks.o(i.uxTaskGetNumberOfTasks), (12 bytes).
    Removing tasks.o(i.uxTaskPriorityGet), (36 bytes).
    Removing tasks.o(i.uxTaskPriorityGetFromISR), (48 bytes).
    Removing tasks.o(i.uxTaskResetEventItemValue), (28 bytes).
    Removing tasks.o(i.vTaskDelayUntil), (192 bytes).
    Removing tasks.o(i.vTaskDelete), (192 bytes).
    Removing tasks.o(i.vTaskEndScheduler), (24 bytes).
    Removing tasks.o(i.vTaskNotifyGiveFromISR), (180 bytes).
    Removing tasks.o(i.vTaskPlaceOnUnorderedEventList), (152 bytes).
    Removing tasks.o(i.vTaskPrioritySet), (236 bytes).
    Removing tasks.o(i.vTaskResume), (116 bytes).
    Removing tasks.o(i.vTaskSuspend), (200 bytes).
    Removing tasks.o(i.xTaskGenericNotify), (216 bytes).
    Removing tasks.o(i.xTaskGenericNotifyFromISR), (260 bytes).
    Removing tasks.o(i.xTaskGetTickCountFromISR), (20 bytes).
    Removing tasks.o(i.xTaskNotifyStateClear), (56 bytes).
    Removing tasks.o(i.xTaskNotifyWait), (212 bytes).
    Removing tasks.o(i.xTaskRemoveFromUnorderedEventList), (148 bytes).
    Removing tasks.o(i.xTaskResumeFromISR), (148 bytes).
    Removing timers.o(i.pcTimerGetTimerName), (20 bytes).
    Removing timers.o(i.pvTimerGetTimerID), (30 bytes).
    Removing timers.o(i.vTimerSetTimerID), (30 bytes).
    Removing timers.o(i.xTimerCreate), (80 bytes).
    Removing timers.o(i.xTimerIsTimerActive), (42 bytes).
    Removing port.o(i.vPortEndScheduler), (36 bytes).
    Removing heap_4.o(i.vPortInitialiseBlocks), (2 bytes).
    Removing heap_4.o(i.xPortGetFreeHeapSize), (12 bytes).
    Removing heap_4.o(i.xPortGetMinimumEverFreeHeapSize), (12 bytes).
    Removing dadd.o(.text), (334 bytes).
    Removing dfixul.o(.text), (48 bytes).
    Removing cdrcmple.o(.text), (48 bytes).

500 unused section(s) (total 28732 bytes) removed from the image.

==============================================================================

Image Symbol Table

    Local Symbols

    Symbol Name                              Value     Ov Type        Size  Object(Section)

    ../clib/../cmprslib/zerorunl2.c          0x00000000   Number         0  __dczerorl2.o ABSOLUTE
    ../clib/microlib/ctype/ctype.c           0x00000000   Number         0  isspace_c.o ABSOLUTE
    ../clib/microlib/ctype/ctype.c           0x00000000   Number         0  ctype_c.o ABSOLUTE
    ../clib/microlib/division.c              0x00000000   Number         0  uldiv.o ABSOLUTE
    ../clib/microlib/division.c              0x00000000   Number         0  uidiv.o ABSOLUTE
    ../clib/microlib/init/entry.s            0x00000000   Number         0  entry10b.o ABSOLUTE
    ../clib/microlib/init/entry.s            0x00000000   Number         0  entry11a.o ABSOLUTE
    ../clib/microlib/init/entry.s            0x00000000   Number         0  entry8b.o ABSOLUTE
    ../clib/microlib/init/entry.s            0x00000000   Number         0  entry.o ABSOLUTE
    ../clib/microlib/init/entry.s            0x00000000   Number         0  entry9a.o ABSOLUTE
    ../clib/microlib/init/entry.s            0x00000000   Number         0  entry9b.o ABSOLUTE
    ../clib/microlib/init/entry.s            0x00000000   Number         0  entry11b.o ABSOLUTE
    ../clib/microlib/init/entry.s            0x00000000   Number         0  entry10a.o ABSOLUTE
    ../clib/microlib/init/entry.s            0x00000000   Number         0  entry2.o ABSOLUTE
    ../clib/microlib/init/entry.s            0x00000000   Number         0  entry5.o ABSOLUTE
    ../clib/microlib/init/entry.s            0x00000000   Number         0  entry7a.o ABSOLUTE
    ../clib/microlib/init/entry.s            0x00000000   Number         0  entry7b.o ABSOLUTE
    ../clib/microlib/init/entry.s            0x00000000   Number         0  entry8a.o ABSOLUTE
    ../clib/microlib/longlong.c              0x00000000   Number         0  llsshr.o ABSOLUTE
    ../clib/microlib/longlong.c              0x00000000   Number         0  llushr.o ABSOLUTE
    ../clib/microlib/longlong.c              0x00000000   Number         0  llshl.o ABSOLUTE
    ../clib/microlib/printf/printf.c         0x00000000   Number         0  printf4.o ABSOLUTE
    ../clib/microlib/printf/printf.c         0x00000000   Number         0  printf8.o ABSOLUTE
    ../clib/microlib/printf/printf.c         0x00000000   Number         0  printf3.o ABSOLUTE
    ../clib/microlib/printf/printf.c         0x00000000   Number         0  printf2.o ABSOLUTE
    ../clib/microlib/printf/printf.c         0x00000000   Number         0  printf1.o ABSOLUTE
    ../clib/microlib/printf/printf.c         0x00000000   Number         0  printf7.o ABSOLUTE
    ../clib/microlib/printf/printf.c         0x00000000   Number         0  printfa.o ABSOLUTE
    ../clib/microlib/printf/printf.c         0x00000000   Number         0  printf0.o ABSOLUTE
    ../clib/microlib/printf/printf.c         0x00000000   Number         0  printf6.o ABSOLUTE
    ../clib/microlib/printf/printf.c         0x00000000   Number         0  printf5.o ABSOLUTE
    ../clib/microlib/printf/printf.c         0x00000000   Number         0  printfb.o ABSOLUTE
    ../clib/microlib/printf/stubs.s          0x00000000   Number         0  stubs.o ABSOLUTE
    ../clib/microlib/stdio/streams.c         0x00000000   Number         0  stdout.o ABSOLUTE
    ../clib/microlib/stdlib/rand.c           0x00000000   Number         0  rand.o ABSOLUTE
    ../clib/microlib/string/memcpy.c         0x00000000   Number         0  memcpya.o ABSOLUTE
    ../clib/microlib/string/memcpy.c         0x00000000   Number         0  memcpyb.o ABSOLUTE
    ../clib/microlib/string/strlen.c         0x00000000   Number         0  strlen.o ABSOLUTE
    ../clib/microlib/string/strstr.c         0x00000000   Number         0  strstr.o ABSOLUTE
    ../clib/microlib/stubs.s                 0x00000000   Number         0  iusefp.o ABSOLUTE
    ../clib/scanf.c                          0x00000000   Number         0  _chval.o ABSOLUTE
    ../clib/scanf.c                          0x00000000   Number         0  _sgetc.o ABSOLUTE
    ../clib/scanf.c                          0x00000000   Number         0  scanf_char.o ABSOLUTE
    ../clib/scanf.c                          0x00000000   Number         0  _scanf.o ABSOLUTE
    ../clib/scanf.c                          0x00000000   Number         0  _scanf_int.o ABSOLUTE
    ../clib/scanf.c                          0x00000000   Number         0  __0sscanf.o ABSOLUTE
    ../fplib/microlib/d2f.c                  0x00000000   Number         0  d2f.o ABSOLUTE
    ../fplib/microlib/f2d.c                  0x00000000   Number         0  f2d.o ABSOLUTE
    ../fplib/microlib/fpadd.c                0x00000000   Number         0  dadd.o ABSOLUTE
    ../fplib/microlib/fpdiv.c                0x00000000   Number         0  fdiv.o ABSOLUTE
    ../fplib/microlib/fpdiv.c                0x00000000   Number         0  ddiv.o ABSOLUTE
    ../fplib/microlib/fpepilogue.c           0x00000000   Number         0  fepilogue.o ABSOLUTE
    ../fplib/microlib/fpepilogue.c           0x00000000   Number         0  depilogue.o ABSOLUTE
    ../fplib/microlib/fpfix.c                0x00000000   Number         0  ffixui.o ABSOLUTE
    ../fplib/microlib/fpfix.c                0x00000000   Number         0  dfixul.o ABSOLUTE
    ../fplib/microlib/fpflt.c                0x00000000   Number         0  ffltui.o ABSOLUTE
    ../fplib/microlib/fpmul.c                0x00000000   Number         0  fmul.o ABSOLUTE
    ../fplib/microlib/fpmul.c                0x00000000   Number         0  dmul.o ABSOLUTE
    ..\..\FreeRTOS\croutine.c                0x00000000   Number         0  croutine.o ABSOLUTE
    ..\..\FreeRTOS\event_groups.c            0x00000000   Number         0  event_groups.o ABSOLUTE
    ..\..\FreeRTOS\list.c                    0x00000000   Number         0  list.o ABSOLUTE
    ..\..\FreeRTOS\portable\MemMang\heap_4.c 0x00000000   Number         0  heap_4.o ABSOLUTE
    ..\..\FreeRTOS\portable\RVDS\ARM_CM3\port.c 0x00000000   Number         0  port.o ABSOLUTE
    ..\..\FreeRTOS\queue.c                   0x00000000   Number         0  queue.o ABSOLUTE
    ..\..\FreeRTOS\tasks.c                   0x00000000   Number         0  tasks.o ABSOLUTE
    ..\..\FreeRTOS\timers.c                  0x00000000   Number         0  timers.o ABSOLUTE
    ..\..\Libraries\CMSIS\Device\ST\STM32F10x\Source\Templates\arm\startup_stm32f10x_hd.s 0x00000000   Number         0  startup_stm32f10x_hd.o ABSOLUTE
    ..\..\Libraries\STM32F10x_StdPeriph_Driver\src\misc.c 0x00000000   Number         0  misc.o ABSOLUTE
    ..\..\Libraries\STM32F10x_StdPeriph_Driver\src\stm32f10x_adc.c 0x00000000   Number         0  stm32f10x_adc.o ABSOLUTE
    ..\..\Libraries\STM32F10x_StdPeriph_Driver\src\stm32f10x_flash.c 0x00000000   Number         0  stm32f10x_flash.o ABSOLUTE
    ..\..\Libraries\STM32F10x_StdPeriph_Driver\src\stm32f10x_gpio.c 0x00000000   Number         0  stm32f10x_gpio.o ABSOLUTE
    ..\..\Libraries\STM32F10x_StdPeriph_Driver\src\stm32f10x_rcc.c 0x00000000   Number         0  stm32f10x_rcc.o ABSOLUTE
    ..\..\Libraries\STM32F10x_StdPeriph_Driver\src\stm32f10x_tim.c 0x00000000   Number         0  stm32f10x_tim.o ABSOLUTE
    ..\..\Libraries\STM32F10x_StdPeriph_Driver\src\stm32f10x_usart.c 0x00000000   Number         0  stm32f10x_usart.o ABSOLUTE
    ..\..\User\app\bsp_motor.c               0x00000000   Number         0  bsp_motor.o ABSOLUTE
    ..\..\User\app\bsp_uart_lcd.c            0x00000000   Number         0  bsp_uart_lcd.o ABSOLUTE
    ..\..\User\app\debug.c                   0x00000000   Number         0  debug.o ABSOLUTE
    ..\..\User\app\eeprom.c                  0x00000000   Number         0  eeprom.o ABSOLUTE
    ..\..\User\app\filter.c                  0x00000000   Number         0  filter.o ABSOLUTE
    ..\..\User\app\save2flash.c              0x00000000   Number         0  save2flash.o ABSOLUTE
    ..\..\User\bsp\bsp.c                     0x00000000   Number         0  bsp.o ABSOLUTE
    ..\..\User\bsp\src\bsp_adc_int.c         0x00000000   Number         0  bsp_adc_int.o ABSOLUTE
    ..\..\User\bsp\src\bsp_beep.c            0x00000000   Number         0  bsp_beep.o ABSOLUTE
    ..\..\User\bsp\src\bsp_ble.c             0x00000000   Number         0  bsp_ble.o ABSOLUTE
    ..\..\User\bsp\src\bsp_dwt.c             0x00000000   Number         0  bsp_dwt.o ABSOLUTE
    ..\..\User\bsp\src\bsp_key.c             0x00000000   Number         0  bsp_key.o ABSOLUTE
    ..\..\User\bsp\src\bsp_led.c             0x00000000   Number         0  bsp_led.o ABSOLUTE
    ..\..\User\bsp\src\bsp_simple_timer.c    0x00000000   Number         0  bsp_simple_timer.o ABSOLUTE
    ..\..\User\bsp\src\bsp_uart_fifo.c       0x00000000   Number         0  bsp_uart_fifo.o ABSOLUTE
    ..\..\User\bsp\stm32f10x_assert.c        0x00000000   Number         0  stm32f10x_assert.o ABSOLUTE
    ..\..\User\bsp\stm32f10x_it.c            0x00000000   Number         0  stm32f10x_it.o ABSOLUTE
    ..\..\User\bsp\system_stm32f10x.c        0x00000000   Number         0  system_stm32f10x.o ABSOLUTE
    ..\..\User\hx711\HX711.c                 0x00000000   Number         0  hx711.o ABSOLUTE
    ..\..\User\lcd\src\cmd_queue.c           0x00000000   Number         0  cmd_queue.o ABSOLUTE
    ..\..\User\lcd\src\hmi_driver.c          0x00000000   Number         0  hmi_driver.o ABSOLUTE
    ..\..\User\lcd\src\hmi_user_uart.c       0x00000000   Number         0  hmi_user_uart.o ABSOLUTE
    ..\..\User\lcd\src\hw_config.c           0x00000000   Number         0  hw_config.o ABSOLUTE
    ..\..\User\lcd\src\ulitity.c             0x00000000   Number         0  ulitity.o ABSOLUTE
    ..\..\User\main.c                        0x00000000   Number         0  main.o ABSOLUTE
    ..\\..\\FreeRTOS\\portable\\RVDS\\ARM_CM3\\port.c 0x00000000   Number         0  port.o ABSOLUTE
    ..\\..\\Libraries\\STM32F10x_StdPeriph_Driver\\src\\misc.c 0x00000000   Number         0  misc.o ABSOLUTE
    ..\\..\\Libraries\\STM32F10x_StdPeriph_Driver\\src\\stm32f10x_adc.c 0x00000000   Number         0  stm32f10x_adc.o ABSOLUTE
    ..\\..\\Libraries\\STM32F10x_StdPeriph_Driver\\src\\stm32f10x_flash.c 0x00000000   Number         0  stm32f10x_flash.o ABSOLUTE
    ..\\..\\Libraries\\STM32F10x_StdPeriph_Driver\\src\\stm32f10x_gpio.c 0x00000000   Number         0  stm32f10x_gpio.o ABSOLUTE
    ..\\..\\Libraries\\STM32F10x_StdPeriph_Driver\\src\\stm32f10x_rcc.c 0x00000000   Number         0  stm32f10x_rcc.o ABSOLUTE
    ..\\..\\Libraries\\STM32F10x_StdPeriph_Driver\\src\\stm32f10x_tim.c 0x00000000   Number         0  stm32f10x_tim.o ABSOLUTE
    ..\\..\\Libraries\\STM32F10x_StdPeriph_Driver\\src\\stm32f10x_usart.c 0x00000000   Number         0  stm32f10x_usart.o ABSOLUTE
    ..\\..\\User\\app\\bsp_motor.c           0x00000000   Number         0  bsp_motor.o ABSOLUTE
    ..\\..\\User\\app\\bsp_uart_lcd.c        0x00000000   Number         0  bsp_uart_lcd.o ABSOLUTE
    ..\\..\\User\\app\\debug.c               0x00000000   Number         0  debug.o ABSOLUTE
    ..\\..\\User\\app\\eeprom.c              0x00000000   Number         0  eeprom.o ABSOLUTE
    ..\\..\\User\\app\\filter.c              0x00000000   Number         0  filter.o ABSOLUTE
    ..\\..\\User\\app\\save2flash.c          0x00000000   Number         0  save2flash.o ABSOLUTE
    ..\\..\\User\\bsp\\bsp.c                 0x00000000   Number         0  bsp.o ABSOLUTE
    ..\\..\\User\\bsp\\src\\bsp_adc_int.c    0x00000000   Number         0  bsp_adc_int.o ABSOLUTE
    ..\\..\\User\\bsp\\src\\bsp_beep.c       0x00000000   Number         0  bsp_beep.o ABSOLUTE
    ..\\..\\User\\bsp\\src\\bsp_ble.c        0x00000000   Number         0  bsp_ble.o ABSOLUTE
    ..\\..\\User\\bsp\\src\\bsp_dwt.c        0x00000000   Number         0  bsp_dwt.o ABSOLUTE
    ..\\..\\User\\bsp\\src\\bsp_key.c        0x00000000   Number         0  bsp_key.o ABSOLUTE
    ..\\..\\User\\bsp\\src\\bsp_led.c        0x00000000   Number         0  bsp_led.o ABSOLUTE
    ..\\..\\User\\bsp\\src\\bsp_simple_timer.c 0x00000000   Number         0  bsp_simple_timer.o ABSOLUTE
    ..\\..\\User\\bsp\\src\\bsp_uart_fifo.c  0x00000000   Number         0  bsp_uart_fifo.o ABSOLUTE
    ..\\..\\User\\bsp\\stm32f10x_assert.c    0x00000000   Number         0  stm32f10x_assert.o ABSOLUTE
    ..\\..\\User\\bsp\\stm32f10x_it.c        0x00000000   Number         0  stm32f10x_it.o ABSOLUTE
    ..\\..\\User\\bsp\\system_stm32f10x.c    0x00000000   Number         0  system_stm32f10x.o ABSOLUTE
    ..\\..\\User\\hx711\\HX711.c             0x00000000   Number         0  hx711.o ABSOLUTE
    ..\\..\\User\\lcd\\src\\cmd_queue.c      0x00000000   Number         0  cmd_queue.o ABSOLUTE
    ..\\..\\User\\lcd\\src\\hmi_driver.c     0x00000000   Number         0  hmi_driver.o ABSOLUTE
    ..\\..\\User\\lcd\\src\\hmi_user_uart.c  0x00000000   Number         0  hmi_user_uart.o ABSOLUTE
    ..\\..\\User\\lcd\\src\\hw_config.c      0x00000000   Number         0  hw_config.o ABSOLUTE
    ..\\..\\User\\lcd\\src\\ulitity.c        0x00000000   Number         0  ulitity.o ABSOLUTE
    ..\\..\\User\\main.c                     0x00000000   Number         0  main.o ABSOLUTE
    cdrcmple.s                               0x00000000   Number         0  cdrcmple.o ABSOLUTE
    dc.s                                     0x00000000   Number         0  dc.o ABSOLUTE
    handlers.s                               0x00000000   Number         0  handlers.o ABSOLUTE
    init.s                                   0x00000000   Number         0  init.o ABSOLUTE
    RESET                                    0x08000000   Section      304  startup_stm32f10x_hd.o(RESET)
    .ARM.Collect$$$$00000000                 0x08000130   Section        0  entry.o(.ARM.Collect$$$$00000000)
    .ARM.Collect$$$$00000001                 0x08000130   Section        4  entry2.o(.ARM.Collect$$$$00000001)
    .ARM.Collect$$$$00000004                 0x08000134   Section        4  entry5.o(.ARM.Collect$$$$00000004)
    .ARM.Collect$$$$00000008                 0x08000138   Section        0  entry7b.o(.ARM.Collect$$$$00000008)
    .ARM.Collect$$$$0000000A                 0x08000138   Section        0  entry8b.o(.ARM.Collect$$$$0000000A)
    .ARM.Collect$$$$0000000B                 0x08000138   Section        8  entry9a.o(.ARM.Collect$$$$0000000B)
    .ARM.Collect$$$$0000000D                 0x08000140   Section        0  entry10a.o(.ARM.Collect$$$$0000000D)
    .ARM.Collect$$$$0000000F                 0x08000140   Section        0  entry11a.o(.ARM.Collect$$$$0000000F)
    .ARM.Collect$$$$00002712                 0x08000140   Section        4  entry2.o(.ARM.Collect$$$$00002712)
    __lit__00000000                          0x08000140   Data           4  entry2.o(.ARM.Collect$$$$00002712)
    .emb_text                                0x08000144   Section      162  port.o(.emb_text)
    .text                                    0x080001e8   Section       36  startup_stm32f10x_hd.o(.text)
    .text                                    0x0800020c   Section        0  memcpya.o(.text)
    .text                                    0x08000230   Section        0  __0sscanf.o(.text)
    .text                                    0x08000268   Section        0  _scanf_int.o(.text)
    .text                                    0x080003b4   Section        0  fmul.o(.text)
    .text                                    0x08000418   Section        0  fdiv.o(.text)
    .text                                    0x08000494   Section        0  dmul.o(.text)
    .text                                    0x08000578   Section        0  ddiv.o(.text)
    .text                                    0x08000656   Section        0  ffltui.o(.text)
    .text                                    0x08000660   Section        0  ffixui.o(.text)
    .text                                    0x08000688   Section        0  f2d.o(.text)
    .text                                    0x080006ae   Section        0  d2f.o(.text)
    .text                                    0x080006e6   Section        0  uldiv.o(.text)
    .text                                    0x08000748   Section        0  _chval.o(.text)
    .text                                    0x08000764   Section        0  scanf_char.o(.text)
    _scanf_char_input                        0x08000765   Thumb Code    12  scanf_char.o(.text)
    .text                                    0x0800078c   Section        0  _sgetc.o(.text)
    .text                                    0x080007cc   Section        0  iusefp.o(.text)
    .text                                    0x080007cc   Section        0  fepilogue.o(.text)
    .text                                    0x0800083a   Section        0  depilogue.o(.text)
    .text                                    0x080008f4   Section       36  init.o(.text)
    .text                                    0x08000918   Section        0  llshl.o(.text)
    .text                                    0x08000936   Section        0  llushr.o(.text)
    .text                                    0x08000956   Section        0  isspace_c.o(.text)
    .text                                    0x08000960   Section        0  _scanf.o(.text)
    .text                                    0x08000c8c   Section        0  ctype_c.o(.text)
    .text                                    0x08000cb4   Section        0  __dczerorl2.o(.text)
    i.ADC1_2_IRQHandler                      0x08000d0c   Section        0  bsp_adc_int.o(i.ADC1_2_IRQHandler)
    i.ADC1_GPIO_Config                       0x08000d3c   Section        0  bsp_adc_int.o(i.ADC1_GPIO_Config)
    ADC1_GPIO_Config                         0x08000d3d   Thumb Code    32  bsp_adc_int.o(i.ADC1_GPIO_Config)
    i.ADC1_GetV                              0x08000d60   Section        0  bsp_adc_int.o(i.ADC1_GetV)
    i.ADC1_InSigEn                           0x08000e58   Section        0  bsp_adc_int.o(i.ADC1_InSigEn)
    i.ADC1_InSigEnInit                       0x08000e70   Section        0  bsp_adc_int.o(i.ADC1_InSigEnInit)
    i.ADC1_Init                              0x08000eb0   Section        0  bsp_adc_int.o(i.ADC1_Init)
    i.ADC1_Mode_Config                       0x08000ec8   Section        0  bsp_adc_int.o(i.ADC1_Mode_Config)
    ADC1_Mode_Config                         0x08000ec9   Thumb Code   136  bsp_adc_int.o(i.ADC1_Mode_Config)
    i.ADC_ClearITPendingBit                  0x08000f54   Section        0  stm32f10x_adc.o(i.ADC_ClearITPendingBit)
    i.ADC_Cmd                                0x08000f5e   Section        0  stm32f10x_adc.o(i.ADC_Cmd)
    i.ADC_GetCalibrationStatus               0x08000f74   Section        0  stm32f10x_adc.o(i.ADC_GetCalibrationStatus)
    i.ADC_GetConversionValue                 0x08000f88   Section        0  stm32f10x_adc.o(i.ADC_GetConversionValue)
    i.ADC_GetITStatus                        0x08000f90   Section        0  stm32f10x_adc.o(i.ADC_GetITStatus)
    i.ADC_GetResetCalibrationStatus          0x08000fb4   Section        0  stm32f10x_adc.o(i.ADC_GetResetCalibrationStatus)
    i.ADC_ITConfig                           0x08000fc8   Section        0  stm32f10x_adc.o(i.ADC_ITConfig)
    i.ADC_Init                               0x08000fe0   Section        0  stm32f10x_adc.o(i.ADC_Init)
    i.ADC_NVIC_Config                        0x08001030   Section        0  bsp_adc_int.o(i.ADC_NVIC_Config)
    ADC_NVIC_Config                          0x08001031   Thumb Code    34  bsp_adc_int.o(i.ADC_NVIC_Config)
    i.ADC_RegularChannelConfig               0x08001052   Section        0  stm32f10x_adc.o(i.ADC_RegularChannelConfig)
    i.ADC_ResetCalibration                   0x0800110a   Section        0  stm32f10x_adc.o(i.ADC_ResetCalibration)
    i.ADC_SoftwareStartConvCmd               0x08001114   Section        0  stm32f10x_adc.o(i.ADC_SoftwareStartConvCmd)
    i.ADC_StartCalibration                   0x0800112a   Section        0  stm32f10x_adc.o(i.ADC_StartCalibration)
    i.AnimationPlayFrame                     0x08001134   Section        0  hmi_driver.o(i.AnimationPlayFrame)
    i.AppTaskCreate                          0x08001188   Section        0  main.o(i.AppTaskCreate)
    AppTaskCreate                            0x08001189   Thumb Code   138  main.o(i.AppTaskCreate)
    i.BEEP_InitHard                          0x08001270   Section        0  bsp_beep.o(i.BEEP_InitHard)
    i.BLE_HwReset                            0x080012a4   Section        0  bsp_ble.o(i.BLE_HwReset)
    i.BLE_Init                               0x080012dc   Section        0  bsp_ble.o(i.BLE_Init)
    i.BLE_IoInit                             0x080012e8   Section        0  bsp_ble.o(i.BLE_IoInit)
    i.BLE_VarInit                            0x0800134c   Section        0  bsp_ble.o(i.BLE_VarInit)
    i.BusFault_Handler                       0x08001358   Section        0  stm32f10x_it.o(i.BusFault_Handler)
    i.ComToUart                              0x0800135c   Section        0  bsp_uart_fifo.o(i.ComToUart)
    i.ConfigUartNVIC                         0x08001394   Section        0  bsp_uart_fifo.o(i.ConfigUartNVIC)
    ConfigUartNVIC                           0x08001395   Thumb Code    94  bsp_uart_fifo.o(i.ConfigUartNVIC)
    i.DebugMon_Handler                       0x080013f2   Section        0  stm32f10x_it.o(i.DebugMon_Handler)
    i.FILTER_Clear                           0x080013f4   Section        0  filter.o(i.FILTER_Clear)
    i.FILTER_Get                             0x08001404   Section        0  filter.o(i.FILTER_Get)
    i.FILTER_Push                            0x080014b0   Section        0  filter.o(i.FILTER_Push)
    i.FLASH_ErasePage                        0x080014e0   Section        0  stm32f10x_flash.o(i.FLASH_ErasePage)
    i.FLASH_GetBank1Status                   0x0800152c   Section        0  stm32f10x_flash.o(i.FLASH_GetBank1Status)
    i.FLASH_Lock                             0x08001560   Section        0  stm32f10x_flash.o(i.FLASH_Lock)
    i.FLASH_ProgramHalfWord                  0x08001574   Section        0  stm32f10x_flash.o(i.FLASH_ProgramHalfWord)
    i.FLASH_Unlock                           0x080015b4   Section        0  stm32f10x_flash.o(i.FLASH_Unlock)
    i.FLASH_WaitForLastOperation             0x080015cc   Section        0  stm32f10x_flash.o(i.FLASH_WaitForLastOperation)
    i.GPIO_Init                              0x080015f2   Section        0  stm32f10x_gpio.o(i.GPIO_Init)
    i.GPIO_ReadInputData                     0x08001708   Section        0  stm32f10x_gpio.o(i.GPIO_ReadInputData)
    i.GPIO_ReadInputDataBit                  0x08001710   Section        0  stm32f10x_gpio.o(i.GPIO_ReadInputDataBit)
    i.GPIO_ResetBits                         0x08001722   Section        0  stm32f10x_gpio.o(i.GPIO_ResetBits)
    i.GPIO_SetBits                           0x08001726   Section        0  stm32f10x_gpio.o(i.GPIO_SetBits)
    i.HX711_Init                             0x0800172c   Section        0  hx711.o(i.HX711_Init)
    i.HX711_Read                             0x0800176c   Section        0  hx711.o(i.HX711_Read)
    i.HardFault_Handler                      0x080017fc   Section        0  stm32f10x_it.o(i.HardFault_Handler)
    i.InitHardUart                           0x08001854   Section        0  bsp_uart_fifo.o(i.InitHardUart)
    InitHardUart                             0x08001855   Thumb Code   408  bsp_uart_fifo.o(i.InitHardUart)
    i.IsKeyDown1                             0x08001a00   Section        0  bsp_key.o(i.IsKeyDown1)
    IsKeyDown1                               0x08001a01   Thumb Code    18  bsp_key.o(i.IsKeyDown1)
    i.IsKeyDown10                            0x08001a18   Section        0  bsp_key.o(i.IsKeyDown10)
    IsKeyDown10                              0x08001a19   Thumb Code    18  bsp_key.o(i.IsKeyDown10)
    i.IsKeyDown11                            0x08001a30   Section        0  bsp_key.o(i.IsKeyDown11)
    IsKeyDown11                              0x08001a31   Thumb Code    18  bsp_key.o(i.IsKeyDown11)
    i.IsKeyDown2                             0x08001a48   Section        0  bsp_key.o(i.IsKeyDown2)
    IsKeyDown2                               0x08001a49   Thumb Code    18  bsp_key.o(i.IsKeyDown2)
    i.IsKeyDown3                             0x08001a60   Section        0  bsp_key.o(i.IsKeyDown3)
    IsKeyDown3                               0x08001a61   Thumb Code    18  bsp_key.o(i.IsKeyDown3)
    i.IsKeyDown4                             0x08001a78   Section        0  bsp_key.o(i.IsKeyDown4)
    IsKeyDown4                               0x08001a79   Thumb Code    18  bsp_key.o(i.IsKeyDown4)
    i.IsKeyDown5                             0x08001a90   Section        0  bsp_key.o(i.IsKeyDown5)
    IsKeyDown5                               0x08001a91   Thumb Code    18  bsp_key.o(i.IsKeyDown5)
    i.IsKeyDown6                             0x08001aa8   Section        0  bsp_key.o(i.IsKeyDown6)
    IsKeyDown6                               0x08001aa9   Thumb Code    18  bsp_key.o(i.IsKeyDown6)
    i.IsKeyDown7                             0x08001ac0   Section        0  bsp_key.o(i.IsKeyDown7)
    IsKeyDown7                               0x08001ac1   Thumb Code    18  bsp_key.o(i.IsKeyDown7)
    i.IsKeyDown8                             0x08001ad8   Section        0  bsp_key.o(i.IsKeyDown8)
    IsKeyDown8                               0x08001ad9   Thumb Code    18  bsp_key.o(i.IsKeyDown8)
    i.IsKeyDown9                             0x08001af0   Section        0  bsp_key.o(i.IsKeyDown9)
    IsKeyDown9                               0x08001af1   Thumb Code    18  bsp_key.o(i.IsKeyDown9)
    i.LCD_ParaInit                           0x08001b08   Section        0  bsp_uart_lcd.o(i.LCD_ParaInit)
    i.MOTOR_ClrStep                          0x08001c34   Section        0  bsp_motor.o(i.MOTOR_ClrStep)
    i.MOTOR_Init                             0x08001c40   Section        0  bsp_motor.o(i.MOTOR_Init)
    i.MOTOR_SetDir                           0x08001c64   Section        0  bsp_motor.o(i.MOTOR_SetDir)
    i.MOTOR_SetSpeed                         0x08001cc4   Section        0  bsp_motor.o(i.MOTOR_SetSpeed)
    i.MOTOR_Start                            0x08001d1c   Section        0  bsp_motor.o(i.MOTOR_Start)
    i.MOTOR_Stop                             0x08001d40   Section        0  bsp_motor.o(i.MOTOR_Stop)
    i.MemManage_Handler                      0x08001d60   Section        0  stm32f10x_it.o(i.MemManage_Handler)
    i.MemReadByte                            0x08001d64   Section        0  save2flash.o(i.MemReadByte)
    i.MemWriteByte                           0x08001d88   Section        0  save2flash.o(i.MemWriteByte)
    i.NMI_Handler                            0x08001de0   Section        0  stm32f10x_it.o(i.NMI_Handler)
    i.NOTIFYHandShake                        0x08001de2   Section        0  bsp_uart_lcd.o(i.NOTIFYHandShake)
    i.NVIC_Init                              0x08001df0   Section        0  misc.o(i.NVIC_Init)
    i.NVIC_PriorityGroupConfig               0x08001e60   Section        0  misc.o(i.NVIC_PriorityGroupConfig)
    i.NotifyButton                           0x08001e74   Section        0  bsp_uart_lcd.o(i.NotifyButton)
    i.NotifyMenu                             0x0800215c   Section        0  bsp_uart_lcd.o(i.NotifyMenu)
    i.NotifyMeter                            0x0800215e   Section        0  bsp_uart_lcd.o(i.NotifyMeter)
    i.NotifyProgress                         0x08002160   Section        0  bsp_uart_lcd.o(i.NotifyProgress)
    i.NotifyReadFlash                        0x08002162   Section        0  bsp_uart_lcd.o(i.NotifyReadFlash)
    i.NotifyReadRTC                          0x08002164   Section        0  bsp_uart_lcd.o(i.NotifyReadRTC)
    i.NotifyScreen                           0x0800216c   Section        0  bsp_uart_lcd.o(i.NotifyScreen)
    i.NotifySelector                         0x080021bc   Section        0  bsp_uart_lcd.o(i.NotifySelector)
    i.NotifySlider                           0x080021be   Section        0  bsp_uart_lcd.o(i.NotifySlider)
    i.NotifyText                             0x080021f0   Section        0  bsp_uart_lcd.o(i.NotifyText)
    i.NotifyTimer                            0x0800225c   Section        0  bsp_uart_lcd.o(i.NotifyTimer)
    i.NotifyTouchXY                          0x0800225e   Section        0  bsp_uart_lcd.o(i.NotifyTouchXY)
    i.NotifyWriteFlash                       0x08002260   Section        0  bsp_uart_lcd.o(i.NotifyWriteFlash)
    i.PRE_Adjust                             0x08002264   Section        0  hx711.o(i.PRE_Adjust)
    i.PRE_GetLevel                           0x08002284   Section        0  hx711.o(i.PRE_GetLevel)
    i.PlayMusic                              0x080022a8   Section        0  hmi_driver.o(i.PlayMusic)
    i.ProcessMessage                         0x080022e8   Section        0  bsp_uart_lcd.o(i.ProcessMessage)
    i.RCC_AHBPeriphClockCmd                  0x0800246c   Section        0  stm32f10x_rcc.o(i.RCC_AHBPeriphClockCmd)
    i.RCC_APB1PeriphClockCmd                 0x0800248c   Section        0  stm32f10x_rcc.o(i.RCC_APB1PeriphClockCmd)
    i.RCC_APB2PeriphClockCmd                 0x080024ac   Section        0  stm32f10x_rcc.o(i.RCC_APB2PeriphClockCmd)
    i.RCC_GetClocksFreq                      0x080024cc   Section        0  stm32f10x_rcc.o(i.RCC_GetClocksFreq)
    i.RS485_InitTXE                          0x080025a0   Section        0  bsp_uart_fifo.o(i.RS485_InitTXE)
    i.ReadFromFlash                          0x080025cc   Section        0  save2flash.o(i.ReadFromFlash)
    i.SaveToFlash                            0x080025e0   Section        0  save2flash.o(i.SaveToFlash)
    i.SendChar                               0x080025f0   Section        0  hmi_user_uart.o(i.SendChar)
    i.SendStrings                            0x080025fe   Section        0  hmi_driver.o(i.SendStrings)
    i.SetButtonValue                         0x08002614   Section        0  hmi_driver.o(i.SetButtonValue)
    i.SetBuzzer                              0x08002666   Section        0  hmi_driver.o(i.SetBuzzer)
    i.SetControlEnable                       0x08002696   Section        0  hmi_driver.o(i.SetControlEnable)
    i.SetControlVisiable                     0x080026e8   Section        0  hmi_driver.o(i.SetControlVisiable)
    i.SetProgressValue                       0x0800273a   Section        0  hmi_driver.o(i.SetProgressValue)
    i.SetSysClock                            0x080027a2   Section        0  system_stm32f10x.o(i.SetSysClock)
    SetSysClock                              0x080027a3   Thumb Code     8  system_stm32f10x.o(i.SetSysClock)
    i.SetSysClockTo72                        0x080027ac   Section        0  system_stm32f10x.o(i.SetSysClockTo72)
    SetSysClockTo72                          0x080027ad   Thumb Code   214  system_stm32f10x.o(i.SetSysClockTo72)
    i.SetTextInt32                           0x0800288c   Section        0  hmi_driver.o(i.SetTextInt32)
    i.SetTextValue                           0x08002918   Section        0  hmi_driver.o(i.SetTextValue)
    i.SysTick_Handler                        0x0800296c   Section        0  port.o(i.SysTick_Handler)
    i.SystemInit                             0x0800298c   Section        0  system_stm32f10x.o(i.SystemInit)
    i.TIM1_UP_IRQHandler                     0x080029ec   Section        0  bsp_motor.o(i.TIM1_UP_IRQHandler)
    i.TIM1_config                            0x08002a3c   Section        0  bsp_motor.o(i.TIM1_config)
    i.TIM2_IRQHandler                        0x08002b04   Section        0  bsp_simple_timer.o(i.TIM2_IRQHandler)
    i.TIM3_IRQHandler                        0x08002b98   Section        0  bsp_simple_timer.o(i.TIM3_IRQHandler)
    i.TIM_ARRPreloadConfig                   0x08002bf0   Section        0  stm32f10x_tim.o(i.TIM_ARRPreloadConfig)
    i.TIM_ClearITPendingBit                  0x08002c08   Section        0  stm32f10x_tim.o(i.TIM_ClearITPendingBit)
    i.TIM_Cmd                                0x08002c0e   Section        0  stm32f10x_tim.o(i.TIM_Cmd)
    i.TIM_CtrlPWMOutputs                     0x08002c26   Section        0  stm32f10x_tim.o(i.TIM_CtrlPWMOutputs)
    i.TIM_GetITStatus                        0x08002c44   Section        0  stm32f10x_tim.o(i.TIM_GetITStatus)
    i.TIM_ITConfig                           0x08002c66   Section        0  stm32f10x_tim.o(i.TIM_ITConfig)
    i.TIM_OC4Init                            0x08002c78   Section        0  stm32f10x_tim.o(i.TIM_OC4Init)
    i.TIM_OC4PreloadConfig                   0x08002cf4   Section        0  stm32f10x_tim.o(i.TIM_OC4PreloadConfig)
    i.TIM_SelectOutputTrigger                0x08002d0e   Section        0  stm32f10x_tim.o(i.TIM_SelectOutputTrigger)
    i.TIM_SetAutoreload                      0x08002d20   Section        0  stm32f10x_tim.o(i.TIM_SetAutoreload)
    i.TIM_SetCompare4                        0x08002d24   Section        0  stm32f10x_tim.o(i.TIM_SetCompare4)
    i.TIM_SetCounter                         0x08002d2a   Section        0  stm32f10x_tim.o(i.TIM_SetCounter)
    i.TIM_TimeBaseInit                       0x08002d30   Section        0  stm32f10x_tim.o(i.TIM_TimeBaseInit)
    i.TMY_ParaInit                           0x08002dd4   Section        0  main.o(i.TMY_ParaInit)
    i.TimeInit                               0x08002e28   Section        0  bsp_simple_timer.o(i.TimeInit)
    i.UART4_IRQHandler                       0x08002e34   Section        0  bsp_uart_fifo.o(i.UART4_IRQHandler)
    i.ULCD_Init                              0x08002e44   Section        0  bsp_uart_lcd.o(i.ULCD_Init)
    i.ULCD_InitIO                            0x08002e78   Section        0  bsp_uart_lcd.o(i.ULCD_InitIO)
    i.ULCD_Task                              0x08002ec0   Section        0  bsp_uart_lcd.o(i.ULCD_Task)
    i.USART1_IRQHandler                      0x08002f6c   Section        0  bsp_uart_fifo.o(i.USART1_IRQHandler)
    i.USART2_IRQHandler                      0x08002f7c   Section        0  bsp_uart_fifo.o(i.USART2_IRQHandler)
    i.USART_ClearFlag                        0x08002f8c   Section        0  stm32f10x_usart.o(i.USART_ClearFlag)
    i.USART_Cmd                              0x08002f9e   Section        0  stm32f10x_usart.o(i.USART_Cmd)
    i.USART_GetFlagStatus                    0x08002fb6   Section        0  stm32f10x_usart.o(i.USART_GetFlagStatus)
    i.USART_GetITStatus                      0x08002fd0   Section        0  stm32f10x_usart.o(i.USART_GetITStatus)
    i.USART_ITConfig                         0x08003024   Section        0  stm32f10x_usart.o(i.USART_ITConfig)
    i.USART_Init                             0x08003070   Section        0  stm32f10x_usart.o(i.USART_Init)
    i.USART_ReceiveData                      0x08003148   Section        0  stm32f10x_usart.o(i.USART_ReceiveData)
    i.USART_SendData                         0x08003152   Section        0  stm32f10x_usart.o(i.USART_SendData)
    i.UartGetChar                            0x0800315a   Section        0  bsp_uart_fifo.o(i.UartGetChar)
    UartGetChar                              0x0800315b   Thumb Code    66  bsp_uart_fifo.o(i.UartGetChar)
    i.UartIRQ                                0x0800319c   Section        0  bsp_uart_fifo.o(i.UartIRQ)
    UartIRQ                                  0x0800319d   Thumb Code   230  bsp_uart_fifo.o(i.UartIRQ)
    i.UartSend                               0x08003282   Section        0  bsp_uart_fifo.o(i.UartSend)
    UartSend                                 0x08003283   Thumb Code   106  bsp_uart_fifo.o(i.UartSend)
    i.UartVarInit                            0x080032ec   Section        0  bsp_uart_fifo.o(i.UartVarInit)
    UartVarInit                              0x080032ed   Thumb Code   126  bsp_uart_fifo.o(i.UartVarInit)
    i.UpdateUI                               0x0800339c   Section        0  bsp_uart_lcd.o(i.UpdateUI)
    i.UsageFault_Handler                     0x080035c8   Section        0  stm32f10x_it.o(i.UsageFault_Handler)
    i.__0printf$8                            0x080035cc   Section        0  printf8.o(i.__0printf$8)
    i.__scatterload_copy                     0x080035ec   Section       14  handlers.o(i.__scatterload_copy)
    i.__scatterload_null                     0x080035fa   Section        2  handlers.o(i.__scatterload_null)
    i.__scatterload_zeroinit                 0x080035fc   Section       14  handlers.o(i.__scatterload_zeroinit)
    i._printf_core                           0x0800360c   Section        0  printf8.o(i._printf_core)
    _printf_core                             0x0800360d   Thumb Code   996  printf8.o(i._printf_core)
    i._printf_post_padding                   0x08003a1c   Section        0  printf8.o(i._printf_post_padding)
    _printf_post_padding                     0x08003a1d   Thumb Code    36  printf8.o(i._printf_post_padding)
    i._printf_pre_padding                    0x08003a40   Section        0  printf8.o(i._printf_pre_padding)
    _printf_pre_padding                      0x08003a41   Thumb Code    46  printf8.o(i._printf_pre_padding)
    i.bsp_DetectKey                          0x08003a70   Section        0  bsp_key.o(i.bsp_DetectKey)
    bsp_DetectKey                            0x08003a71   Thumb Code   198  bsp_key.o(i.bsp_DetectKey)
    i.bsp_GetKey                             0x08003b3c   Section        0  bsp_key.o(i.bsp_GetKey)
    i.bsp_GetKeyState                        0x08003b70   Section        0  bsp_key.o(i.bsp_GetKeyState)
    i.bsp_Init                               0x08003b80   Section        0  bsp.o(i.bsp_Init)
    i.bsp_InitDWT                            0x08003ba8   Section        0  bsp_dwt.o(i.bsp_InitDWT)
    i.bsp_InitKey                            0x08003bd0   Section        0  bsp_key.o(i.bsp_InitKey)
    i.bsp_InitKeyHard                        0x08003bdc   Section        0  bsp_key.o(i.bsp_InitKeyHard)
    bsp_InitKeyHard                          0x08003bdd   Thumb Code   184  bsp_key.o(i.bsp_InitKeyHard)
    i.bsp_InitKeyVar                         0x08003ca0   Section        0  bsp_key.o(i.bsp_InitKeyVar)
    bsp_InitKeyVar                           0x08003ca1   Thumb Code   122  bsp_key.o(i.bsp_InitKeyVar)
    i.bsp_InitLed                            0x08003d50   Section        0  bsp_led.o(i.bsp_InitLed)
    i.bsp_InitUart                           0x08003dc4   Section        0  bsp_uart_fifo.o(i.bsp_InitUart)
    i.bsp_KeyScan                            0x08003dd8   Section        0  bsp_key.o(i.bsp_KeyScan)
    i.bsp_LedOff                             0x08003df0   Section        0  bsp_led.o(i.bsp_LedOff)
    i.bsp_PutKey                             0x08003e2c   Section        0  bsp_key.o(i.bsp_PutKey)
    i.comGetChar                             0x08003e4c   Section        0  bsp_uart_fifo.o(i.comGetChar)
    i.comGetLen                              0x08003e6a   Section        0  bsp_uart_fifo.o(i.comGetLen)
    i.comSendBuf                             0x08003e7a   Section        0  bsp_uart_fifo.o(i.comSendBuf)
    i.debug_ble                              0x08003ea8   Section        0  debug.o(i.debug_ble)
    i.debug_en                               0x08003ec0   Section        0  debug.o(i.debug_en)
    i.debug_usr                              0x08003ecc   Section        0  debug.o(i.debug_usr)
    i.delay_ms                               0x08003ee4   Section        0  bsp_dwt.o(i.delay_ms)
    i.delay_us                               0x08003ef6   Section        0  bsp_dwt.o(i.delay_us)
    i.fputc                                  0x08003f04   Section        0  bsp_uart_fifo.o(i.fputc)
    i.main                                   0x08003f28   Section        0  main.o(i.main)
    i.motor_dir_init                         0x08003f54   Section        0  bsp_motor.o(i.motor_dir_init)
    i.motor_pul_init                         0x08003f8c   Section        0  bsp_motor.o(i.motor_pul_init)
    i.prvAddCurrentTaskToDelayedList         0x08003f98   Section        0  tasks.o(i.prvAddCurrentTaskToDelayedList)
    prvAddCurrentTaskToDelayedList           0x08003f99   Thumb Code    62  tasks.o(i.prvAddCurrentTaskToDelayedList)
    i.prvAllocateTCBAndStack                 0x08003fec   Section        0  tasks.o(i.prvAllocateTCBAndStack)
    prvAllocateTCBAndStack                   0x08003fed   Thumb Code    54  tasks.o(i.prvAllocateTCBAndStack)
    i.prvCheckForValidListAndQueue           0x08004024   Section        0  timers.o(i.prvCheckForValidListAndQueue)
    prvCheckForValidListAndQueue             0x08004025   Thumb Code    70  timers.o(i.prvCheckForValidListAndQueue)
    i.prvCheckTasksWaitingTermination        0x08004080   Section        0  tasks.o(i.prvCheckTasksWaitingTermination)
    prvCheckTasksWaitingTermination          0x08004081   Thumb Code    86  tasks.o(i.prvCheckTasksWaitingTermination)
    i.prvCopyDataFromQueue                   0x080040e4   Section        0  queue.o(i.prvCopyDataFromQueue)
    prvCopyDataFromQueue                     0x080040e5   Thumb Code    42  queue.o(i.prvCopyDataFromQueue)
    i.prvCopyDataToQueue                     0x0800410e   Section        0  queue.o(i.prvCopyDataToQueue)
    prvCopyDataToQueue                       0x0800410f   Thumb Code   110  queue.o(i.prvCopyDataToQueue)
    i.prvDeleteTCB                           0x0800417c   Section        0  tasks.o(i.prvDeleteTCB)
    prvDeleteTCB                             0x0800417d   Thumb Code    18  tasks.o(i.prvDeleteTCB)
    i.prvGetNextExpireTime                   0x08004190   Section        0  timers.o(i.prvGetNextExpireTime)
    prvGetNextExpireTime                     0x08004191   Thumb Code    36  timers.o(i.prvGetNextExpireTime)
    i.prvHeapInit                            0x080041b8   Section        0  heap_4.o(i.prvHeapInit)
    prvHeapInit                              0x080041b9   Thumb Code    98  heap_4.o(i.prvHeapInit)
    i.prvIdleTask                            0x08004234   Section        0  tasks.o(i.prvIdleTask)
    prvIdleTask                              0x08004235   Thumb Code    20  tasks.o(i.prvIdleTask)
    i.prvInitialiseTCBVariables              0x0800424c   Section        0  tasks.o(i.prvInitialiseTCBVariables)
    prvInitialiseTCBVariables                0x0800424d   Thumb Code    92  tasks.o(i.prvInitialiseTCBVariables)
    i.prvInitialiseTaskLists                 0x080042a8   Section        0  tasks.o(i.prvInitialiseTaskLists)
    prvInitialiseTaskLists                   0x080042a9   Thumb Code    70  tasks.o(i.prvInitialiseTaskLists)
    i.prvInsertBlockIntoFreeList             0x08004310   Section        0  heap_4.o(i.prvInsertBlockIntoFreeList)
    prvInsertBlockIntoFreeList               0x08004311   Thumb Code    96  heap_4.o(i.prvInsertBlockIntoFreeList)
    i.prvInsertTimerInActiveList             0x08004378   Section        0  timers.o(i.prvInsertTimerInActiveList)
    prvInsertTimerInActiveList               0x08004379   Thumb Code    80  timers.o(i.prvInsertTimerInActiveList)
    i.prvIsQueueEmpty                        0x080043d0   Section        0  queue.o(i.prvIsQueueEmpty)
    prvIsQueueEmpty                          0x080043d1   Thumb Code    26  queue.o(i.prvIsQueueEmpty)
    i.prvIsQueueFull                         0x080043ea   Section        0  queue.o(i.prvIsQueueFull)
    prvIsQueueFull                           0x080043eb   Thumb Code    30  queue.o(i.prvIsQueueFull)
    i.prvProcessExpiredTimer                 0x08004408   Section        0  timers.o(i.prvProcessExpiredTimer)
    prvProcessExpiredTimer                   0x08004409   Thumb Code    82  timers.o(i.prvProcessExpiredTimer)
    i.prvProcessReceivedCommands             0x08004460   Section        0  timers.o(i.prvProcessReceivedCommands)
    prvProcessReceivedCommands               0x08004461   Thumb Code   216  timers.o(i.prvProcessReceivedCommands)
    i.prvProcessTimerOrBlockTask             0x0800453c   Section        0  timers.o(i.prvProcessTimerOrBlockTask)
    prvProcessTimerOrBlockTask               0x0800453d   Thumb Code    90  timers.o(i.prvProcessTimerOrBlockTask)
    i.prvResetNextTaskUnblockTime            0x080045a0   Section        0  tasks.o(i.prvResetNextTaskUnblockTime)
    prvResetNextTaskUnblockTime              0x080045a1   Thumb Code    42  tasks.o(i.prvResetNextTaskUnblockTime)
    i.prvSampleTimeNow                       0x080045d4   Section        0  timers.o(i.prvSampleTimeNow)
    prvSampleTimeNow                         0x080045d5   Thumb Code    40  timers.o(i.prvSampleTimeNow)
    i.prvSwitchTimerLists                    0x08004600   Section        0  timers.o(i.prvSwitchTimerLists)
    prvSwitchTimerLists                      0x08004601   Thumb Code   136  timers.o(i.prvSwitchTimerLists)
    i.prvTaskExitError                       0x08004690   Section        0  port.o(i.prvTaskExitError)
    prvTaskExitError                         0x08004691   Thumb Code    32  port.o(i.prvTaskExitError)
    i.prvTimerTask                           0x080046b4   Section        0  timers.o(i.prvTimerTask)
    prvTimerTask                             0x080046b5   Thumb Code    26  timers.o(i.prvTimerTask)
    i.prvUnlockQueue                         0x080046ce   Section        0  queue.o(i.prvUnlockQueue)
    prvUnlockQueue                           0x080046cf   Thumb Code   126  queue.o(i.prvUnlockQueue)
    i.pvPortMalloc                           0x0800474c   Section        0  heap_4.o(i.pvPortMalloc)
    i.pxPortInitialiseStack                  0x08004860   Section        0  port.o(i.pxPortInitialiseStack)
    i.queue_find_cmd                         0x08004880   Section        0  cmd_queue.o(i.queue_find_cmd)
    i.start_set                              0x080048e4   Section        0  main.o(i.start_set)
    i.timer2_init                            0x08004970   Section        0  bsp_simple_timer.o(i.timer2_init)
    i.timer3_init                            0x080049d4   Section        0  bsp_simple_timer.o(i.timer3_init)
    i.uxListRemove                           0x08004a44   Section        0  list.o(i.uxListRemove)
    i.vListInitialise                        0x08004a6c   Section        0  list.o(i.vListInitialise)
    i.vListInitialiseItem                    0x08004a86   Section        0  list.o(i.vListInitialiseItem)
    i.vListInsert                            0x08004a8c   Section        0  list.o(i.vListInsert)
    i.vListInsertEnd                         0x08004ac0   Section        0  list.o(i.vListInsertEnd)
    i.vPortEnterCritical                     0x08004ad8   Section        0  port.o(i.vPortEnterCritical)
    i.vPortExitCritical                      0x08004b1c   Section        0  port.o(i.vPortExitCritical)
    i.vPortFree                              0x08004b48   Section        0  heap_4.o(i.vPortFree)
    i.vPortSetupTimerInterrupt               0x08004bc0   Section        0  port.o(i.vPortSetupTimerInterrupt)
    i.vPortValidateInterruptPriority         0x08004bd4   Section        0  port.o(i.vPortValidateInterruptPriority)
    i.vPortYield                             0x08004c30   Section        0  port.o(i.vPortYield)
    i.vQueueWaitForMessageRestricted         0x08004c48   Section        0  queue.o(i.vQueueWaitForMessageRestricted)
    i.vTaskAdc                               0x08004c8c   Section        0  main.o(i.vTaskAdc)
    vTaskAdc                                 0x08004c8d   Thumb Code    34  main.o(i.vTaskAdc)
    i.vTaskBle                               0x08004cb4   Section        0  main.o(i.vTaskBle)
    vTaskBle                                 0x08004cb5   Thumb Code    76  main.o(i.vTaskBle)
    i.vTaskDelay                             0x08004d0c   Section        0  tasks.o(i.vTaskDelay)
    i.vTaskLCD                               0x08004d7c   Section        0  main.o(i.vTaskLCD)
    vTaskLCD                                 0x08004d7d   Thumb Code    30  main.o(i.vTaskLCD)
    i.vTaskMissedYield                       0x08004da8   Section        0  tasks.o(i.vTaskMissedYield)
    i.vTaskMotorCtrl                         0x08004db4   Section        0  main.o(i.vTaskMotorCtrl)
    vTaskMotorCtrl                           0x08004db5   Thumb Code  2116  main.o(i.vTaskMotorCtrl)
    i.vTaskPlaceOnEventList                  0x080056b8   Section        0  tasks.o(i.vTaskPlaceOnEventList)
    i.vTaskPlaceOnEventListRestricted        0x08005728   Section        0  tasks.o(i.vTaskPlaceOnEventListRestricted)
    i.vTaskSensor                            0x0800579c   Section        0  main.o(i.vTaskSensor)
    vTaskSensor                              0x0800579d   Thumb Code   290  main.o(i.vTaskSensor)
    i.vTaskSetTimeOutState                   0x080058d8   Section        0  tasks.o(i.vTaskSetTimeOutState)
    i.vTaskStartScheduler                    0x080058fc   Section        0  tasks.o(i.vTaskStartScheduler)
    i.vTaskSuspendAll                        0x08005964   Section        0  tasks.o(i.vTaskSuspendAll)
    i.vTaskSwitchContext                     0x08005974   Section        0  tasks.o(i.vTaskSwitchContext)
    i.xPortStartScheduler                    0x080059f4   Section        0  port.o(i.xPortStartScheduler)
    i.xQueueGenericCreate                    0x08005a94   Section        0  queue.o(i.xQueueGenericCreate)
    i.xQueueGenericReceive                   0x08005afa   Section        0  queue.o(i.xQueueGenericReceive)
    i.xQueueGenericReset                     0x08005c36   Section        0  queue.o(i.xQueueGenericReset)
    i.xQueueGenericSend                      0x08005cae   Section        0  queue.o(i.xQueueGenericSend)
    i.xQueueGenericSendFromISR               0x08005df0   Section        0  queue.o(i.xQueueGenericSendFromISR)
    i.xTaskCheckForTimeOut                   0x08005e9c   Section        0  tasks.o(i.xTaskCheckForTimeOut)
    i.xTaskGenericCreate                     0x08005f10   Section        0  tasks.o(i.xTaskGenericCreate)
    i.xTaskGetSchedulerState                 0x08006044   Section        0  tasks.o(i.xTaskGetSchedulerState)
    i.xTaskGetTickCount                      0x08006064   Section        0  tasks.o(i.xTaskGetTickCount)
    i.xTaskIncrementTick                     0x08006070   Section        0  tasks.o(i.xTaskIncrementTick)
    i.xTaskRemoveFromEventList               0x080061ac   Section        0  tasks.o(i.xTaskRemoveFromEventList)
    i.xTaskResumeAll                         0x08006238   Section        0  tasks.o(i.xTaskResumeAll)
    i.xTimerCreateTimerTask                  0x08006320   Section        0  timers.o(i.xTimerCreateTimerTask)
    i.xTimerGenericCommand                   0x08006368   Section        0  timers.o(i.xTimerGenericCommand)
    .constdata                               0x080063dc   Section       64  ctype_c.o(.constdata)
    .data                                    0x20000000   Section       24  main.o(.data)
    xHandleTaskLCD                           0x20000004   Data           4  main.o(.data)
    xHandleTaskMotorCtrl                     0x20000008   Data           4  main.o(.data)
    xHandleTaskSensor                        0x2000000c   Data           4  main.o(.data)
    xHandleTaskAdc                           0x20000010   Data           4  main.o(.data)
    xHandleTaskBle                           0x20000014   Data           4  main.o(.data)
    .data                                    0x20000018   Section      212  bsp_motor.o(.data)
    .data                                    0x200000ec   Section       23  bsp_uart_lcd.o(.data)
    current_screen_id                        0x20000100   Data           2  bsp_uart_lcd.o(.data)
    menu_visable                             0x20000102   Data           1  bsp_uart_lcd.o(.data)
    .data                                    0x20000103   Section        1  debug.o(.data)
    .data                                    0x20000104   Section        4  bsp_simple_timer.o(.data)
    .data                                    0x20000108   Section        1  bsp_ble.o(.data)
    .data                                    0x20000109   Section       20  stm32f10x_rcc.o(.data)
    APBAHBPrescTable                         0x20000109   Data          16  stm32f10x_rcc.o(.data)
    ADCPrescTable                            0x20000119   Data           4  stm32f10x_rcc.o(.data)
    .data                                    0x20000120   Section       56  tasks.o(.data)
    pxDelayedTaskList                        0x20000124   Data           4  tasks.o(.data)
    pxOverflowDelayedTaskList                0x20000128   Data           4  tasks.o(.data)
    uxTasksDeleted                           0x2000012c   Data           4  tasks.o(.data)
    uxCurrentNumberOfTasks                   0x20000130   Data           4  tasks.o(.data)
    xTickCount                               0x20000134   Data           4  tasks.o(.data)
    uxTopReadyPriority                       0x20000138   Data           4  tasks.o(.data)
    xSchedulerRunning                        0x2000013c   Data           4  tasks.o(.data)
    uxPendedTicks                            0x20000140   Data           4  tasks.o(.data)
    xYieldPending                            0x20000144   Data           4  tasks.o(.data)
    xNumOfOverflows                          0x20000148   Data           4  tasks.o(.data)
    uxTaskNumber                             0x2000014c   Data           4  tasks.o(.data)
    xNextTaskUnblockTime                     0x20000150   Data           4  tasks.o(.data)
    uxSchedulerSuspended                     0x20000154   Data           4  tasks.o(.data)
    .data                                    0x20000158   Section       16  timers.o(.data)
    pxCurrentTimerList                       0x20000158   Data           4  timers.o(.data)
    pxOverflowTimerList                      0x2000015c   Data           4  timers.o(.data)
    xTimerQueue                              0x20000160   Data           4  timers.o(.data)
    xLastTime                                0x20000164   Data           4  timers.o(.data)
    .data                                    0x20000168   Section       12  port.o(.data)
    uxCriticalNesting                        0x20000168   Data           4  port.o(.data)
    ucMaxSysCallPriority                     0x2000016c   Data           1  port.o(.data)
    ulMaxPRIGROUPValue                       0x20000170   Data           4  port.o(.data)
    .data                                    0x20000174   Section       24  heap_4.o(.data)
    xStart                                   0x20000174   Data           8  heap_4.o(.data)
    pxEnd                                    0x2000017c   Data           4  heap_4.o(.data)
    xFreeBytesRemaining                      0x20000180   Data           4  heap_4.o(.data)
    xMinimumEverFreeBytesRemaining           0x20000184   Data           4  heap_4.o(.data)
    xBlockAllocatedBit                       0x20000188   Data           4  heap_4.o(.data)
    .data                                    0x2000018c   Section        4  stdout.o(.data)
    .bss                                     0x20000190   Section      220  main.o(.bss)
    BLE_TxBuf                                0x20000190   Data         100  main.o(.bss)
    BLE_RxBuf                                0x200001f4   Data         100  main.o(.bss)
    .bss                                     0x2000026c   Section      232  bsp_motor.o(.bss)
    BLE_TxBuf                                0x2000026c   Data         100  bsp_motor.o(.bss)
    BLE_RxBuf                                0x200002d0   Data         100  bsp_motor.o(.bss)
    .bss                                     0x20000354   Section      264  bsp_uart_lcd.o(.bss)
    BLE_TxBuf                                0x20000354   Data         100  bsp_uart_lcd.o(.bss)
    BLE_RxBuf                                0x200003b8   Data         100  bsp_uart_lcd.o(.bss)
    .bss                                     0x2000045c   Section      224  filter.o(.bss)
    BLE_TxBuf                                0x2000045c   Data         100  filter.o(.bss)
    BLE_RxBuf                                0x200004c0   Data         100  filter.o(.bss)
    .bss                                     0x2000053c   Section      280  save2flash.o(.bss)
    BLE_TxBuf                                0x2000053c   Data         100  save2flash.o(.bss)
    BLE_RxBuf                                0x200005a0   Data         100  save2flash.o(.bss)
    .bss                                     0x20000654   Section      389  bsp_key.o(.bss)
    BLE_TxBuf                                0x20000654   Data         100  bsp_key.o(.bss)
    BLE_RxBuf                                0x200006b8   Data         100  bsp_key.o(.bss)
    s_tBtn                                   0x2000071c   Data         176  bsp_key.o(.bss)
    s_tKey                                   0x200007cc   Data          13  bsp_key.o(.bss)
    .bss                                     0x200007dc   Section     1600  bsp_uart_fifo.o(.bss)
    BLE_TxBuf                                0x200007dc   Data         100  bsp_uart_fifo.o(.bss)
    BLE_RxBuf                                0x20000840   Data         100  bsp_uart_fifo.o(.bss)
    g_tUart1                                 0x200008a4   Data          40  bsp_uart_fifo.o(.bss)
    g_TxBuf1                                 0x200008cc   Data         256  bsp_uart_fifo.o(.bss)
    g_RxBuf1                                 0x200009cc   Data         256  bsp_uart_fifo.o(.bss)
    g_tUart2                                 0x20000acc   Data          40  bsp_uart_fifo.o(.bss)
    g_TxBuf2                                 0x20000af4   Data         256  bsp_uart_fifo.o(.bss)
    g_RxBuf2                                 0x20000bf4   Data         256  bsp_uart_fifo.o(.bss)
    g_tUart4                                 0x20000cf4   Data          40  bsp_uart_fifo.o(.bss)
    g_TxBuf4                                 0x20000d1c   Data         128  bsp_uart_fifo.o(.bss)
    g_RxBuf4                                 0x20000d9c   Data         128  bsp_uart_fifo.o(.bss)
    .bss                                     0x20000e1c   Section      230  bsp_ble.o(.bss)
    BLE_TxBuf                                0x20000e1c   Data         100  bsp_ble.o(.bss)
    BLE_RxBuf                                0x20000e80   Data         100  bsp_ble.o(.bss)
    .bss                                     0x20000f04   Section      228  hx711.o(.bss)
    BLE_TxBuf                                0x20000f20   Data         100  hx711.o(.bss)
    BLE_RxBuf                                0x20000f84   Data         100  hx711.o(.bss)
    .bss                                     0x20000fe8   Section      220  tasks.o(.bss)
    pxReadyTasksLists                        0x20000fe8   Data         120  tasks.o(.bss)
    xDelayedTaskList1                        0x20001060   Data          20  tasks.o(.bss)
    xDelayedTaskList2                        0x20001074   Data          20  tasks.o(.bss)
    xPendingReadyList                        0x20001088   Data          20  tasks.o(.bss)
    xTasksWaitingTermination                 0x2000109c   Data          20  tasks.o(.bss)
    xSuspendedTaskList                       0x200010b0   Data          20  tasks.o(.bss)
    .bss                                     0x200010c4   Section       40  timers.o(.bss)
    xActiveTimerList1                        0x200010c4   Data          20  timers.o(.bss)
    xActiveTimerList2                        0x200010d8   Data          20  timers.o(.bss)
    .bss                                     0x200010ec   Section    11264  heap_4.o(.bss)
    ucHeap                                   0x200010ec   Data       11264  heap_4.o(.bss)
    STACK                                    0x20003cf0   Section     2048  startup_stm32f10x_hd.o(STACK)

    Global Symbols

    Symbol Name                              Value     Ov Type        Size  Object(Section)

    BuildAttributes$$THM_ISAv4$P$D$K$B$S$PE$A:L22UL41UL21$X:L11$S22US41US21$IEEE1$IW$USESV6$~STKCKD$USESV7$~SHL$OTIME$ROPI$EBA8$MICROLIB$REQ8$PRES8$EABIv2 0x00000000   Number         0  anon$$obj.o ABSOLUTE
    __ARM_use_no_argv                        0x00000000   Number         0  main.o ABSOLUTE
    _printf_a                                0x00000000   Number         0  stubs.o ABSOLUTE
    _printf_c                                0x00000000   Number         0  stubs.o ABSOLUTE
    _printf_charcount                        0x00000000   Number         0  stubs.o ABSOLUTE
    _printf_d                                0x00000000   Number         0  stubs.o ABSOLUTE
    _printf_e                                0x00000000   Number         0  stubs.o ABSOLUTE
    _printf_f                                0x00000000   Number         0  stubs.o ABSOLUTE
    _printf_flags                            0x00000000   Number         0  stubs.o ABSOLUTE
    _printf_fp_dec                           0x00000000   Number         0  stubs.o ABSOLUTE
    _printf_fp_hex                           0x00000000   Number         0  stubs.o ABSOLUTE
    _printf_g                                0x00000000   Number         0  stubs.o ABSOLUTE
    _printf_i                                0x00000000   Number         0  stubs.o ABSOLUTE
    _printf_int_dec                          0x00000000   Number         0  stubs.o ABSOLUTE
    _printf_l                                0x00000000   Number         0  stubs.o ABSOLUTE
    _printf_lc                               0x00000000   Number         0  stubs.o ABSOLUTE
    _printf_ll                               0x00000000   Number         0  stubs.o ABSOLUTE
    _printf_lld                              0x00000000   Number         0  stubs.o ABSOLUTE
    _printf_lli                              0x00000000   Number         0  stubs.o ABSOLUTE
    _printf_llo                              0x00000000   Number         0  stubs.o ABSOLUTE
    _printf_llu                              0x00000000   Number         0  stubs.o ABSOLUTE
    _printf_llx                              0x00000000   Number         0  stubs.o ABSOLUTE
    _printf_longlong_dec                     0x00000000   Number         0  stubs.o ABSOLUTE
    _printf_longlong_hex                     0x00000000   Number         0  stubs.o ABSOLUTE
    _printf_longlong_oct                     0x00000000   Number         0  stubs.o ABSOLUTE
    _printf_ls                               0x00000000   Number         0  stubs.o ABSOLUTE
    _printf_mbtowc                           0x00000000   Number         0  stubs.o ABSOLUTE
    _printf_n                                0x00000000   Number         0  stubs.o ABSOLUTE
    _printf_o                                0x00000000   Number         0  stubs.o ABSOLUTE
    _printf_p                                0x00000000   Number         0  stubs.o ABSOLUTE
    _printf_percent                          0x00000000   Number         0  stubs.o ABSOLUTE
    _printf_pre_padding                      0x00000000   Number         0  stubs.o ABSOLUTE
    _printf_return_value                     0x00000000   Number         0  stubs.o ABSOLUTE
    _printf_s                                0x00000000   Number         0  stubs.o ABSOLUTE
    _printf_sizespec                         0x00000000   Number         0  stubs.o ABSOLUTE
    _printf_str                              0x00000000   Number         0  stubs.o ABSOLUTE
    _printf_truncate_signed                  0x00000000   Number         0  stubs.o ABSOLUTE
    _printf_truncate_unsigned                0x00000000   Number         0  stubs.o ABSOLUTE
    _printf_u                                0x00000000   Number         0  stubs.o ABSOLUTE
    _printf_wc                               0x00000000   Number         0  stubs.o ABSOLUTE
    _printf_wctomb                           0x00000000   Number         0  stubs.o ABSOLUTE
    _printf_widthprec                        0x00000000   Number         0  stubs.o ABSOLUTE
    _printf_x                                0x00000000   Number         0  stubs.o ABSOLUTE
    __cpp_initialize__aeabi_                  - Undefined Weak Reference
    __cxa_finalize                            - Undefined Weak Reference
    _clock_init                               - Undefined Weak Reference
    _microlib_exit                            - Undefined Weak Reference
    _scanf_longlong                           - Undefined Weak Reference
    _scanf_real                               - Undefined Weak Reference
    _scanf_string                             - Undefined Weak Reference
    __Vectors_Size                           0x00000130   Number         0  startup_stm32f10x_hd.o ABSOLUTE
    __Vectors                                0x08000000   Data           4  startup_stm32f10x_hd.o(RESET)
    __Vectors_End                            0x08000130   Data           0  startup_stm32f10x_hd.o(RESET)
    __main                                   0x08000131   Thumb Code     0  entry.o(.ARM.Collect$$$$00000000)
    _main_stk                                0x08000131   Thumb Code     0  entry2.o(.ARM.Collect$$$$00000001)
    _main_scatterload                        0x08000135   Thumb Code     0  entry5.o(.ARM.Collect$$$$00000004)
    __main_after_scatterload                 0x08000139   Thumb Code     0  entry5.o(.ARM.Collect$$$$00000004)
    _main_clock                              0x08000139   Thumb Code     0  entry7b.o(.ARM.Collect$$$$00000008)
    _main_cpp_init                           0x08000139   Thumb Code     0  entry8b.o(.ARM.Collect$$$$0000000A)
    _main_init                               0x08000139   Thumb Code     0  entry9a.o(.ARM.Collect$$$$0000000B)
    __rt_final_cpp                           0x08000141   Thumb Code     0  entry10a.o(.ARM.Collect$$$$0000000D)
    __rt_final_exit                          0x08000141   Thumb Code     0  entry11a.o(.ARM.Collect$$$$0000000F)
    SVC_Handler                              0x08000145   Thumb Code    32  port.o(.emb_text)
    __asm___6_port_c_39a90d8d__prvStartFirstTask 0x08000169   Thumb Code    28  port.o(.emb_text)
    PendSV_Handler                           0x08000189   Thumb Code    64  port.o(.emb_text)
    ulPortSetInterruptMask                   0x080001cd   Thumb Code    14  port.o(.emb_text)
    vPortClearInterruptMask                  0x080001db   Thumb Code     6  port.o(.emb_text)
    vPortGetIPSR                             0x080001e1   Thumb Code     6  port.o(.emb_text)
    Reset_Handler                            0x080001e9   Thumb Code     8  startup_stm32f10x_hd.o(.text)
    ADC3_IRQHandler                          0x08000203   Thumb Code     0  startup_stm32f10x_hd.o(.text)
    CAN1_RX1_IRQHandler                      0x08000203   Thumb Code     0  startup_stm32f10x_hd.o(.text)
    CAN1_SCE_IRQHandler                      0x08000203   Thumb Code     0  startup_stm32f10x_hd.o(.text)
    DMA1_Channel1_IRQHandler                 0x08000203   Thumb Code     0  startup_stm32f10x_hd.o(.text)
    DMA1_Channel2_IRQHandler                 0x08000203   Thumb Code     0  startup_stm32f10x_hd.o(.text)
    DMA1_Channel3_IRQHandler                 0x08000203   Thumb Code     0  startup_stm32f10x_hd.o(.text)
    DMA1_Channel4_IRQHandler                 0x08000203   Thumb Code     0  startup_stm32f10x_hd.o(.text)
    DMA1_Channel5_IRQHandler                 0x08000203   Thumb Code     0  startup_stm32f10x_hd.o(.text)
    DMA1_Channel6_IRQHandler                 0x08000203   Thumb Code     0  startup_stm32f10x_hd.o(.text)
    DMA1_Channel7_IRQHandler                 0x08000203   Thumb Code     0  startup_stm32f10x_hd.o(.text)
    DMA2_Channel1_IRQHandler                 0x08000203   Thumb Code     0  startup_stm32f10x_hd.o(.text)
    DMA2_Channel2_IRQHandler                 0x08000203   Thumb Code     0  startup_stm32f10x_hd.o(.text)
    DMA2_Channel3_IRQHandler                 0x08000203   Thumb Code     0  startup_stm32f10x_hd.o(.text)
    DMA2_Channel4_5_IRQHandler               0x08000203   Thumb Code     0  startup_stm32f10x_hd.o(.text)
    EXTI0_IRQHandler                         0x08000203   Thumb Code     0  startup_stm32f10x_hd.o(.text)
    EXTI15_10_IRQHandler                     0x08000203   Thumb Code     0  startup_stm32f10x_hd.o(.text)
    EXTI1_IRQHandler                         0x08000203   Thumb Code     0  startup_stm32f10x_hd.o(.text)
    EXTI2_IRQHandler                         0x08000203   Thumb Code     0  startup_stm32f10x_hd.o(.text)
    EXTI3_IRQHandler                         0x08000203   Thumb Code     0  startup_stm32f10x_hd.o(.text)
    EXTI4_IRQHandler                         0x08000203   Thumb Code     0  startup_stm32f10x_hd.o(.text)
    EXTI9_5_IRQHandler                       0x08000203   Thumb Code     0  startup_stm32f10x_hd.o(.text)
    FLASH_IRQHandler                         0x08000203   Thumb Code     0  startup_stm32f10x_hd.o(.text)
    FSMC_IRQHandler                          0x08000203   Thumb Code     0  startup_stm32f10x_hd.o(.text)
    I2C1_ER_IRQHandler                       0x08000203   Thumb Code     0  startup_stm32f10x_hd.o(.text)
    I2C1_EV_IRQHandler                       0x08000203   Thumb Code     0  startup_stm32f10x_hd.o(.text)
    I2C2_ER_IRQHandler                       0x08000203   Thumb Code     0  startup_stm32f10x_hd.o(.text)
    I2C2_EV_IRQHandler                       0x08000203   Thumb Code     0  startup_stm32f10x_hd.o(.text)
    PVD_IRQHandler                           0x08000203   Thumb Code     0  startup_stm32f10x_hd.o(.text)
    RCC_IRQHandler                           0x08000203   Thumb Code     0  startup_stm32f10x_hd.o(.text)
    RTCAlarm_IRQHandler                      0x08000203   Thumb Code     0  startup_stm32f10x_hd.o(.text)
    RTC_IRQHandler                           0x08000203   Thumb Code     0  startup_stm32f10x_hd.o(.text)
    SDIO_IRQHandler                          0x08000203   Thumb Code     0  startup_stm32f10x_hd.o(.text)
    SPI1_IRQHandler                          0x08000203   Thumb Code     0  startup_stm32f10x_hd.o(.text)
    SPI2_IRQHandler                          0x08000203   Thumb Code     0  startup_stm32f10x_hd.o(.text)
    SPI3_IRQHandler                          0x08000203   Thumb Code     0  startup_stm32f10x_hd.o(.text)
    TAMPER_IRQHandler                        0x08000203   Thumb Code     0  startup_stm32f10x_hd.o(.text)
    TIM1_BRK_IRQHandler                      0x08000203   Thumb Code     0  startup_stm32f10x_hd.o(.text)
    TIM1_CC_IRQHandler                       0x08000203   Thumb Code     0  startup_stm32f10x_hd.o(.text)
    TIM1_TRG_COM_IRQHandler                  0x08000203   Thumb Code     0  startup_stm32f10x_hd.o(.text)
    TIM4_IRQHandler                          0x08000203   Thumb Code     0  startup_stm32f10x_hd.o(.text)
    TIM5_IRQHandler                          0x08000203   Thumb Code     0  startup_stm32f10x_hd.o(.text)
    TIM6_IRQHandler                          0x08000203   Thumb Code     0  startup_stm32f10x_hd.o(.text)
    TIM7_IRQHandler                          0x08000203   Thumb Code     0  startup_stm32f10x_hd.o(.text)
    TIM8_BRK_IRQHandler                      0x08000203   Thumb Code     0  startup_stm32f10x_hd.o(.text)
    TIM8_CC_IRQHandler                       0x08000203   Thumb Code     0  startup_stm32f10x_hd.o(.text)
    TIM8_TRG_COM_IRQHandler                  0x08000203   Thumb Code     0  startup_stm32f10x_hd.o(.text)
    TIM8_UP_IRQHandler                       0x08000203   Thumb Code     0  startup_stm32f10x_hd.o(.text)
    UART5_IRQHandler                         0x08000203   Thumb Code     0  startup_stm32f10x_hd.o(.text)
    USART3_IRQHandler                        0x08000203   Thumb Code     0  startup_stm32f10x_hd.o(.text)
    USBWakeUp_IRQHandler                     0x08000203   Thumb Code     0  startup_stm32f10x_hd.o(.text)
    USB_HP_CAN1_TX_IRQHandler                0x08000203   Thumb Code     0  startup_stm32f10x_hd.o(.text)
    USB_LP_CAN1_RX0_IRQHandler               0x08000203   Thumb Code     0  startup_stm32f10x_hd.o(.text)
    WWDG_IRQHandler                          0x08000203   Thumb Code     0  startup_stm32f10x_hd.o(.text)
    __aeabi_memcpy                           0x0800020d   Thumb Code    36  memcpya.o(.text)
    __aeabi_memcpy4                          0x0800020d   Thumb Code     0  memcpya.o(.text)
    __aeabi_memcpy8                          0x0800020d   Thumb Code     0  memcpya.o(.text)
    __0sscanf                                0x08000231   Thumb Code    48  __0sscanf.o(.text)
    _scanf_int                               0x08000269   Thumb Code   332  _scanf_int.o(.text)
    __aeabi_fmul                             0x080003b5   Thumb Code   100  fmul.o(.text)
    __aeabi_fdiv                             0x08000419   Thumb Code   124  fdiv.o(.text)
    __aeabi_dmul                             0x08000495   Thumb Code   228  dmul.o(.text)
    __aeabi_ddiv                             0x08000579   Thumb Code   222  ddiv.o(.text)
    __aeabi_ui2f                             0x08000657   Thumb Code    10  ffltui.o(.text)
    __aeabi_f2uiz                            0x08000661   Thumb Code    40  ffixui.o(.text)
    __aeabi_f2d                              0x08000689   Thumb Code    38  f2d.o(.text)
    __aeabi_d2f                              0x080006af   Thumb Code    56  d2f.o(.text)
    __aeabi_uldivmod                         0x080006e7   Thumb Code    98  uldiv.o(.text)
    _chval                                   0x08000749   Thumb Code    28  _chval.o(.text)
    __vfscanf_char                           0x08000771   Thumb Code    20  scanf_char.o(.text)
    _sgetc                                   0x0800078d   Thumb Code    30  _sgetc.o(.text)
    _sbackspace                              0x080007ab   Thumb Code    34  _sgetc.o(.text)
    __I$use$fp                               0x080007cd   Thumb Code     0  iusefp.o(.text)
    _float_round                             0x080007cd   Thumb Code    18  fepilogue.o(.text)
    _float_epilogue                          0x080007df   Thumb Code    92  fepilogue.o(.text)
    _double_round                            0x0800083b   Thumb Code    30  depilogue.o(.text)
    _double_epilogue                         0x08000859   Thumb Code   156  depilogue.o(.text)
    __scatterload                            0x080008f5   Thumb Code    28  init.o(.text)
    __scatterload_rt2                        0x080008f5   Thumb Code     0  init.o(.text)
    __aeabi_llsl                             0x08000919   Thumb Code    30  llshl.o(.text)
    _ll_shift_l                              0x08000919   Thumb Code     0  llshl.o(.text)
    __aeabi_llsr                             0x08000937   Thumb Code    32  llushr.o(.text)
    _ll_ushift_r                             0x08000937   Thumb Code     0  llushr.o(.text)
    isspace                                  0x08000957   Thumb Code    10  isspace_c.o(.text)
    __vfscanf                                0x08000961   Thumb Code   808  _scanf.o(.text)
    __ctype_lookup                           0x08000c8d   Thumb Code    34  ctype_c.o(.text)
    __decompress                             0x08000cb5   Thumb Code     0  __dczerorl2.o(.text)
    __decompress1                            0x08000cb5   Thumb Code    86  __dczerorl2.o(.text)
    ADC1_2_IRQHandler                        0x08000d0d   Thumb Code    42  bsp_adc_int.o(i.ADC1_2_IRQHandler)
    ADC1_GetV                                0x08000d61   Thumb Code   196  bsp_adc_int.o(i.ADC1_GetV)
    ADC1_InSigEn                             0x08000e59   Thumb Code    18  bsp_adc_int.o(i.ADC1_InSigEn)
    ADC1_InSigEnInit                         0x08000e71   Thumb Code    58  bsp_adc_int.o(i.ADC1_InSigEnInit)
    ADC1_Init                                0x08000eb1   Thumb Code    24  bsp_adc_int.o(i.ADC1_Init)
    ADC_ClearITPendingBit                    0x08000f55   Thumb Code    10  stm32f10x_adc.o(i.ADC_ClearITPendingBit)
    ADC_Cmd                                  0x08000f5f   Thumb Code    22  stm32f10x_adc.o(i.ADC_Cmd)
    ADC_GetCalibrationStatus                 0x08000f75   Thumb Code    20  stm32f10x_adc.o(i.ADC_GetCalibrationStatus)
    ADC_GetConversionValue                   0x08000f89   Thumb Code     8  stm32f10x_adc.o(i.ADC_GetConversionValue)
    ADC_GetITStatus                          0x08000f91   Thumb Code    36  stm32f10x_adc.o(i.ADC_GetITStatus)
    ADC_GetResetCalibrationStatus            0x08000fb5   Thumb Code    20  stm32f10x_adc.o(i.ADC_GetResetCalibrationStatus)
    ADC_ITConfig                             0x08000fc9   Thumb Code    24  stm32f10x_adc.o(i.ADC_ITConfig)
    ADC_Init                                 0x08000fe1   Thumb Code    70  stm32f10x_adc.o(i.ADC_Init)
    ADC_RegularChannelConfig                 0x08001053   Thumb Code   184  stm32f10x_adc.o(i.ADC_RegularChannelConfig)
    ADC_ResetCalibration                     0x0800110b   Thumb Code    10  stm32f10x_adc.o(i.ADC_ResetCalibration)
    ADC_SoftwareStartConvCmd                 0x08001115   Thumb Code    22  stm32f10x_adc.o(i.ADC_SoftwareStartConvCmd)
    ADC_StartCalibration                     0x0800112b   Thumb Code    10  stm32f10x_adc.o(i.ADC_StartCalibration)
    AnimationPlayFrame                       0x08001135   Thumb Code    82  hmi_driver.o(i.AnimationPlayFrame)
    BEEP_InitHard                            0x08001271   Thumb Code    48  bsp_beep.o(i.BEEP_InitHard)
    BLE_HwReset                              0x080012a5   Thumb Code    36  bsp_ble.o(i.BLE_HwReset)
    BLE_Init                                 0x080012dd   Thumb Code    12  bsp_ble.o(i.BLE_Init)
    BLE_IoInit                               0x080012e9   Thumb Code    90  bsp_ble.o(i.BLE_IoInit)
    BLE_VarInit                              0x0800134d   Thumb Code     8  bsp_ble.o(i.BLE_VarInit)
    BusFault_Handler                         0x08001359   Thumb Code     4  stm32f10x_it.o(i.BusFault_Handler)
    ComToUart                                0x0800135d   Thumb Code    44  bsp_uart_fifo.o(i.ComToUart)
    DebugMon_Handler                         0x080013f3   Thumb Code     2  stm32f10x_it.o(i.DebugMon_Handler)
    FILTER_Clear                             0x080013f5   Thumb Code    10  filter.o(i.FILTER_Clear)
    FILTER_Get                               0x08001405   Thumb Code   166  filter.o(i.FILTER_Get)
    FILTER_Push                              0x080014b1   Thumb Code    44  filter.o(i.FILTER_Push)
    FLASH_ErasePage                          0x080014e1   Thumb Code    72  stm32f10x_flash.o(i.FLASH_ErasePage)
    FLASH_GetBank1Status                     0x0800152d   Thumb Code    48  stm32f10x_flash.o(i.FLASH_GetBank1Status)
    FLASH_Lock                               0x08001561   Thumb Code    14  stm32f10x_flash.o(i.FLASH_Lock)
    FLASH_ProgramHalfWord                    0x08001575   Thumb Code    60  stm32f10x_flash.o(i.FLASH_ProgramHalfWord)
    FLASH_Unlock                             0x080015b5   Thumb Code    12  stm32f10x_flash.o(i.FLASH_Unlock)
    FLASH_WaitForLastOperation               0x080015cd   Thumb Code    38  stm32f10x_flash.o(i.FLASH_WaitForLastOperation)
    GPIO_Init                                0x080015f3   Thumb Code   278  stm32f10x_gpio.o(i.GPIO_Init)
    GPIO_ReadInputData                       0x08001709   Thumb Code     8  stm32f10x_gpio.o(i.GPIO_ReadInputData)
    GPIO_ReadInputDataBit                    0x08001711   Thumb Code    18  stm32f10x_gpio.o(i.GPIO_ReadInputDataBit)
    GPIO_ResetBits                           0x08001723   Thumb Code     4  stm32f10x_gpio.o(i.GPIO_ResetBits)
    GPIO_SetBits                             0x08001727   Thumb Code     4  stm32f10x_gpio.o(i.GPIO_SetBits)
    HX711_Init                               0x0800172d   Thumb Code    60  hx711.o(i.HX711_Init)
    HX711_Read                               0x0800176d   Thumb Code   138  hx711.o(i.HX711_Read)
    HardFault_Handler                        0x080017fd   Thumb Code    40  stm32f10x_it.o(i.HardFault_Handler)
    LCD_ParaInit                             0x08001b09   Thumb Code   254  bsp_uart_lcd.o(i.LCD_ParaInit)
    MOTOR_ClrStep                            0x08001c35   Thumb Code     8  bsp_motor.o(i.MOTOR_ClrStep)
    MOTOR_Init                               0x08001c41   Thumb Code    28  bsp_motor.o(i.MOTOR_Init)
    MOTOR_SetDir                             0x08001c65   Thumb Code    72  bsp_motor.o(i.MOTOR_SetDir)
    MOTOR_SetSpeed                           0x08001cc5   Thumb Code    80  bsp_motor.o(i.MOTOR_SetSpeed)
    MOTOR_Start                              0x08001d1d   Thumb Code    26  bsp_motor.o(i.MOTOR_Start)
    MOTOR_Stop                               0x08001d41   Thumb Code    24  bsp_motor.o(i.MOTOR_Stop)
    MemManage_Handler                        0x08001d61   Thumb Code     4  stm32f10x_it.o(i.MemManage_Handler)
    MemReadByte                              0x08001d65   Thumb Code    32  save2flash.o(i.MemReadByte)
    MemWriteByte                             0x08001d89   Thumb Code    82  save2flash.o(i.MemWriteByte)
    NMI_Handler                              0x08001de1   Thumb Code     2  stm32f10x_it.o(i.NMI_Handler)
    NOTIFYHandShake                          0x08001de3   Thumb Code    14  bsp_uart_lcd.o(i.NOTIFYHandShake)
    NVIC_Init                                0x08001df1   Thumb Code   100  misc.o(i.NVIC_Init)
    NVIC_PriorityGroupConfig                 0x08001e61   Thumb Code    10  misc.o(i.NVIC_PriorityGroupConfig)
    NotifyButton                             0x08001e75   Thumb Code   662  bsp_uart_lcd.o(i.NotifyButton)
    NotifyMenu                               0x0800215d   Thumb Code     2  bsp_uart_lcd.o(i.NotifyMenu)
    NotifyMeter                              0x0800215f   Thumb Code     2  bsp_uart_lcd.o(i.NotifyMeter)
    NotifyProgress                           0x08002161   Thumb Code     2  bsp_uart_lcd.o(i.NotifyProgress)
    NotifyReadFlash                          0x08002163   Thumb Code     2  bsp_uart_lcd.o(i.NotifyReadFlash)
    NotifyReadRTC                            0x08002165   Thumb Code     8  bsp_uart_lcd.o(i.NotifyReadRTC)
    NotifyScreen                             0x0800216d   Thumb Code    68  bsp_uart_lcd.o(i.NotifyScreen)
    NotifySelector                           0x080021bd   Thumb Code     2  bsp_uart_lcd.o(i.NotifySelector)
    NotifySlider                             0x080021bf   Thumb Code    50  bsp_uart_lcd.o(i.NotifySlider)
    NotifyText                               0x080021f1   Thumb Code   102  bsp_uart_lcd.o(i.NotifyText)
    NotifyTimer                              0x0800225d   Thumb Code     2  bsp_uart_lcd.o(i.NotifyTimer)
    NotifyTouchXY                            0x0800225f   Thumb Code     2  bsp_uart_lcd.o(i.NotifyTouchXY)
    NotifyWriteFlash                         0x08002261   Thumb Code     2  bsp_uart_lcd.o(i.NotifyWriteFlash)
    PRE_Adjust                               0x08002265   Thumb Code    24  hx711.o(i.PRE_Adjust)
    PRE_GetLevel                             0x08002285   Thumb Code    32  hx711.o(i.PRE_GetLevel)
    PlayMusic                                0x080022a9   Thumb Code    64  hmi_driver.o(i.PlayMusic)
    ProcessMessage                           0x080022e9   Thumb Code   384  bsp_uart_lcd.o(i.ProcessMessage)
    RCC_AHBPeriphClockCmd                    0x0800246d   Thumb Code    26  stm32f10x_rcc.o(i.RCC_AHBPeriphClockCmd)
    RCC_APB1PeriphClockCmd                   0x0800248d   Thumb Code    26  stm32f10x_rcc.o(i.RCC_APB1PeriphClockCmd)
    RCC_APB2PeriphClockCmd                   0x080024ad   Thumb Code    26  stm32f10x_rcc.o(i.RCC_APB2PeriphClockCmd)
    RCC_GetClocksFreq                        0x080024cd   Thumb Code   192  stm32f10x_rcc.o(i.RCC_GetClocksFreq)
    RS485_InitTXE                            0x080025a1   Thumb Code    38  bsp_uart_fifo.o(i.RS485_InitTXE)
    ReadFromFlash                            0x080025cd   Thumb Code    14  save2flash.o(i.ReadFromFlash)
    SaveToFlash                              0x080025e1   Thumb Code    12  save2flash.o(i.SaveToFlash)
    SendChar                                 0x080025f1   Thumb Code    14  hmi_user_uart.o(i.SendChar)
    SendStrings                              0x080025ff   Thumb Code    22  hmi_driver.o(i.SendStrings)
    SetButtonValue                           0x08002615   Thumb Code    82  hmi_driver.o(i.SetButtonValue)
    SetBuzzer                                0x08002667   Thumb Code    48  hmi_driver.o(i.SetBuzzer)
    SetControlEnable                         0x08002697   Thumb Code    82  hmi_driver.o(i.SetControlEnable)
    SetControlVisiable                       0x080026e9   Thumb Code    82  hmi_driver.o(i.SetControlVisiable)
    SetProgressValue                         0x0800273b   Thumb Code   104  hmi_driver.o(i.SetProgressValue)
    SetTextInt32                             0x0800288d   Thumb Code   140  hmi_driver.o(i.SetTextInt32)
    SetTextValue                             0x08002919   Thumb Code    82  hmi_driver.o(i.SetTextValue)
    SysTick_Handler                          0x0800296d   Thumb Code    28  port.o(i.SysTick_Handler)
    SystemInit                               0x0800298d   Thumb Code    78  system_stm32f10x.o(i.SystemInit)
    TIM1_UP_IRQHandler                       0x080029ed   Thumb Code    72  bsp_motor.o(i.TIM1_UP_IRQHandler)
    TIM1_config                              0x08002a3d   Thumb Code   190  bsp_motor.o(i.TIM1_config)
    TIM2_IRQHandler                          0x08002b05   Thumb Code   126  bsp_simple_timer.o(i.TIM2_IRQHandler)
    TIM3_IRQHandler                          0x08002b99   Thumb Code    72  bsp_simple_timer.o(i.TIM3_IRQHandler)
    TIM_ARRPreloadConfig                     0x08002bf1   Thumb Code    24  stm32f10x_tim.o(i.TIM_ARRPreloadConfig)
    TIM_ClearITPendingBit                    0x08002c09   Thumb Code     6  stm32f10x_tim.o(i.TIM_ClearITPendingBit)
    TIM_Cmd                                  0x08002c0f   Thumb Code    24  stm32f10x_tim.o(i.TIM_Cmd)
    TIM_CtrlPWMOutputs                       0x08002c27   Thumb Code    30  stm32f10x_tim.o(i.TIM_CtrlPWMOutputs)
    TIM_GetITStatus                          0x08002c45   Thumb Code    34  stm32f10x_tim.o(i.TIM_GetITStatus)
    TIM_ITConfig                             0x08002c67   Thumb Code    18  stm32f10x_tim.o(i.TIM_ITConfig)
    TIM_OC4Init                              0x08002c79   Thumb Code   114  stm32f10x_tim.o(i.TIM_OC4Init)
    TIM_OC4PreloadConfig                     0x08002cf5   Thumb Code    26  stm32f10x_tim.o(i.TIM_OC4PreloadConfig)
    TIM_SelectOutputTrigger                  0x08002d0f   Thumb Code    18  stm32f10x_tim.o(i.TIM_SelectOutputTrigger)
    TIM_SetAutoreload                        0x08002d21   Thumb Code     4  stm32f10x_tim.o(i.TIM_SetAutoreload)
    TIM_SetCompare4                          0x08002d25   Thumb Code     6  stm32f10x_tim.o(i.TIM_SetCompare4)
    TIM_SetCounter                           0x08002d2b   Thumb Code     4  stm32f10x_tim.o(i.TIM_SetCounter)
    TIM_TimeBaseInit                         0x08002d31   Thumb Code   122  stm32f10x_tim.o(i.TIM_TimeBaseInit)
    TMY_ParaInit                             0x08002dd5   Thumb Code    72  main.o(i.TMY_ParaInit)
    TimeInit                                 0x08002e29   Thumb Code    12  bsp_simple_timer.o(i.TimeInit)
    UART4_IRQHandler                         0x08002e35   Thumb Code    10  bsp_uart_fifo.o(i.UART4_IRQHandler)
    ULCD_Init                                0x08002e45   Thumb Code    34  bsp_uart_lcd.o(i.ULCD_Init)
    ULCD_InitIO                              0x08002e79   Thumb Code    66  bsp_uart_lcd.o(i.ULCD_InitIO)
    ULCD_Task                                0x08002ec1   Thumb Code   146  bsp_uart_lcd.o(i.ULCD_Task)
    USART1_IRQHandler                        0x08002f6d   Thumb Code    10  bsp_uart_fifo.o(i.USART1_IRQHandler)
    USART2_IRQHandler                        0x08002f7d   Thumb Code    10  bsp_uart_fifo.o(i.USART2_IRQHandler)
    USART_ClearFlag                          0x08002f8d   Thumb Code    18  stm32f10x_usart.o(i.USART_ClearFlag)
    USART_Cmd                                0x08002f9f   Thumb Code    24  stm32f10x_usart.o(i.USART_Cmd)
    USART_GetFlagStatus                      0x08002fb7   Thumb Code    26  stm32f10x_usart.o(i.USART_GetFlagStatus)
    USART_GetITStatus                        0x08002fd1   Thumb Code    84  stm32f10x_usart.o(i.USART_GetITStatus)
    USART_ITConfig                           0x08003025   Thumb Code    74  stm32f10x_usart.o(i.USART_ITConfig)
    USART_Init                               0x08003071   Thumb Code   210  stm32f10x_usart.o(i.USART_Init)
    USART_ReceiveData                        0x08003149   Thumb Code    10  stm32f10x_usart.o(i.USART_ReceiveData)
    USART_SendData                           0x08003153   Thumb Code     8  stm32f10x_usart.o(i.USART_SendData)
    UpdateUI                                 0x0800339d   Thumb Code   502  bsp_uart_lcd.o(i.UpdateUI)
    UsageFault_Handler                       0x080035c9   Thumb Code     4  stm32f10x_it.o(i.UsageFault_Handler)
    __0printf$8                              0x080035cd   Thumb Code    22  printf8.o(i.__0printf$8)
    __1printf$8                              0x080035cd   Thumb Code     0  printf8.o(i.__0printf$8)
    __2printf                                0x080035cd   Thumb Code     0  printf8.o(i.__0printf$8)
    __scatterload_copy                       0x080035ed   Thumb Code    14  handlers.o(i.__scatterload_copy)
    __scatterload_null                       0x080035fb   Thumb Code     2  handlers.o(i.__scatterload_null)
    __scatterload_zeroinit                   0x080035fd   Thumb Code    14  handlers.o(i.__scatterload_zeroinit)
    bsp_GetKey                               0x08003b3d   Thumb Code    46  bsp_key.o(i.bsp_GetKey)
    bsp_GetKeyState                          0x08003b71   Thumb Code    12  bsp_key.o(i.bsp_GetKeyState)
    bsp_Init                                 0x08003b81   Thumb Code    40  bsp.o(i.bsp_Init)
    bsp_InitDWT                              0x08003ba9   Thumb Code    30  bsp_dwt.o(i.bsp_InitDWT)
    bsp_InitKey                              0x08003bd1   Thumb Code    12  bsp_key.o(i.bsp_InitKey)
    bsp_InitLed                              0x08003d51   Thumb Code   110  bsp_led.o(i.bsp_InitLed)
    bsp_InitUart                             0x08003dc5   Thumb Code    20  bsp_uart_fifo.o(i.bsp_InitUart)
    bsp_KeyScan                              0x08003dd9   Thumb Code    22  bsp_key.o(i.bsp_KeyScan)
    bsp_LedOff                               0x08003df1   Thumb Code    54  bsp_led.o(i.bsp_LedOff)
    bsp_PutKey                               0x08003e2d   Thumb Code    28  bsp_key.o(i.bsp_PutKey)
    comGetChar                               0x08003e4d   Thumb Code    30  bsp_uart_fifo.o(i.comGetChar)
    comGetLen                                0x08003e6b   Thumb Code    16  bsp_uart_fifo.o(i.comGetLen)
    comSendBuf                               0x08003e7b   Thumb Code    46  bsp_uart_fifo.o(i.comSendBuf)
    debug_ble                                0x08003ea9   Thumb Code    18  debug.o(i.debug_ble)
    debug_en                                 0x08003ec1   Thumb Code     6  debug.o(i.debug_en)
    debug_usr                                0x08003ecd   Thumb Code    18  debug.o(i.debug_usr)
    delay_ms                                 0x08003ee5   Thumb Code    18  bsp_dwt.o(i.delay_ms)
    delay_us                                 0x08003ef7   Thumb Code    14  bsp_dwt.o(i.delay_us)
    fputc                                    0x08003f05   Thumb Code    32  bsp_uart_fifo.o(i.fputc)
    main                                     0x08003f29   Thumb Code    42  main.o(i.main)
    motor_dir_init                           0x08003f55   Thumb Code    50  bsp_motor.o(i.motor_dir_init)
    motor_pul_init                           0x08003f8d   Thumb Code    12  bsp_motor.o(i.motor_pul_init)
    pvPortMalloc                             0x0800474d   Thumb Code   254  heap_4.o(i.pvPortMalloc)
    pxPortInitialiseStack                    0x08004861   Thumb Code    26  port.o(i.pxPortInitialiseStack)
    queue_find_cmd                           0x08004881   Thumb Code   100  cmd_queue.o(i.queue_find_cmd)
    start_set                                0x080048e5   Thumb Code    42  main.o(i.start_set)
    timer2_init                              0x08004971   Thumb Code   100  bsp_simple_timer.o(i.timer2_init)
    timer3_init                              0x080049d5   Thumb Code   108  bsp_simple_timer.o(i.timer3_init)
    uxListRemove                             0x08004a45   Thumb Code    40  list.o(i.uxListRemove)
    vListInitialise                          0x08004a6d   Thumb Code    26  list.o(i.vListInitialise)
    vListInitialiseItem                      0x08004a87   Thumb Code     6  list.o(i.vListInitialiseItem)
    vListInsert                              0x08004a8d   Thumb Code    52  list.o(i.vListInsert)
    vListInsertEnd                           0x08004ac1   Thumb Code    24  list.o(i.vListInsertEnd)
    vPortEnterCritical                       0x08004ad9   Thumb Code    58  port.o(i.vPortEnterCritical)
    vPortExitCritical                        0x08004b1d   Thumb Code    40  port.o(i.vPortExitCritical)
    vPortFree                                0x08004b49   Thumb Code   112  heap_4.o(i.vPortFree)
    vPortSetupTimerInterrupt                 0x08004bc1   Thumb Code    14  port.o(i.vPortSetupTimerInterrupt)
    vPortValidateInterruptPriority           0x08004bd5   Thumb Code    78  port.o(i.vPortValidateInterruptPriority)
    vPortYield                               0x08004c31   Thumb Code    18  port.o(i.vPortYield)
    vQueueWaitForMessageRestricted           0x08004c49   Thumb Code    66  queue.o(i.vQueueWaitForMessageRestricted)
    vTaskDelay                               0x08004d0d   Thumb Code    94  tasks.o(i.vTaskDelay)
    vTaskMissedYield                         0x08004da9   Thumb Code     8  tasks.o(i.vTaskMissedYield)
    vTaskPlaceOnEventList                    0x080056b9   Thumb Code    94  tasks.o(i.vTaskPlaceOnEventList)
    vTaskPlaceOnEventListRestricted          0x08005729   Thumb Code   100  tasks.o(i.vTaskPlaceOnEventListRestricted)
    vTaskSetTimeOutState                     0x080058d9   Thumb Code    28  tasks.o(i.vTaskSetTimeOutState)
    vTaskStartScheduler                      0x080058fd   Thumb Code    80  tasks.o(i.vTaskStartScheduler)
    vTaskSuspendAll                          0x08005965   Thumb Code    12  tasks.o(i.vTaskSuspendAll)
    vTaskSwitchContext                       0x08005975   Thumb Code   106  tasks.o(i.vTaskSwitchContext)
    xPortStartScheduler                      0x080059f5   Thumb Code   140  port.o(i.xPortStartScheduler)
    xQueueGenericCreate                      0x08005a95   Thumb Code   102  queue.o(i.xQueueGenericCreate)
    xQueueGenericReceive                     0x08005afb   Thumb Code   316  queue.o(i.xQueueGenericReceive)
    xQueueGenericReset                       0x08005c37   Thumb Code   120  queue.o(i.xQueueGenericReset)
    xQueueGenericSend                        0x08005caf   Thumb Code   322  queue.o(i.xQueueGenericSend)
    xQueueGenericSendFromISR                 0x08005df1   Thumb Code   172  queue.o(i.xQueueGenericSendFromISR)
    xTaskCheckForTimeOut                     0x08005e9d   Thumb Code   108  tasks.o(i.xTaskCheckForTimeOut)
    xTaskGenericCreate                       0x08005f11   Thumb Code   282  tasks.o(i.xTaskGenericCreate)
    xTaskGetSchedulerState                   0x08006045   Thumb Code    24  tasks.o(i.xTaskGetSchedulerState)
    xTaskGetTickCount                        0x08006065   Thumb Code     6  tasks.o(i.xTaskGetTickCount)
    xTaskIncrementTick                       0x08006071   Thumb Code   272  tasks.o(i.xTaskIncrementTick)
    xTaskRemoveFromEventList                 0x080061ad   Thumb Code   114  tasks.o(i.xTaskRemoveFromEventList)
    xTaskResumeAll                           0x08006239   Thumb Code   200  tasks.o(i.xTaskResumeAll)
    xTimerCreateTimerTask                    0x08006321   Thumb Code    56  timers.o(i.xTimerCreateTimerTask)
    xTimerGenericCommand                     0x08006369   Thumb Code   112  timers.o(i.xTimerGenericCommand)
    __ctype_categories                       0x080063dc   Data          64  ctype_c.o(.constdata)
    Region$$Table$$Base                      0x0800641c   Number         0  anon$$obj.o(Region$$Table)
    Region$$Table$$Limit                     0x0800643c   Number         0  anon$$obj.o(Region$$Table)
    dg_sta                                   0x20000000   Data           1  main.o(.data)
    dev_sta                                  0x20000001   Data           1  main.o(.data)
    BEEP_TIMER                               0x20000018   Data          16  bsp_motor.o(.data)
    MOTOR_SPEED_DISPLAY                      0x20000028   Data          72  bsp_motor.o(.data)
    MOTOR_SPEED_CYCLE                        0x20000070   Data          16  bsp_motor.o(.data)
    MOTOR_SPEED_INDEX                        0x20000080   Data          24  bsp_motor.o(.data)
    DIS_PLAY                                 0x20000098   Data          84  bsp_motor.o(.data)
    lg_lcd_init                              0x200000ec   Data           1  bsp_uart_lcd.o(.data)
    dg_sta_befor                             0x200000ed   Data           1  bsp_uart_lcd.o(.data)
    timer_lcd_update                         0x200000f0   Data           4  bsp_uart_lcd.o(.data)
    timer_beep                               0x200000f4   Data           4  bsp_uart_lcd.o(.data)
    lcd_prosser                              0x200000f8   Data           2  bsp_uart_lcd.o(.data)
    timer_tick_count                         0x200000fc   Data           4  bsp_uart_lcd.o(.data)
    lg_debug_en                              0x20000103   Data           1  debug.o(.data)
    timer_pedal_up                           0x20000104   Data           1  bsp_simple_timer.o(.data)
    timer_pedal_down                         0x20000105   Data           1  bsp_simple_timer.o(.data)
    timer_dg_init                            0x20000106   Data           1  bsp_simple_timer.o(.data)
    timer_ble_netledon                       0x20000107   Data           1  bsp_simple_timer.o(.data)
    ble_state_tem                            0x20000108   Data           1  bsp_ble.o(.data)
    pxCurrentTCB                             0x20000120   Data           4  tasks.o(.data)
    __stdout                                 0x2000018c   Data           4  stdout.o(.data)
    Tmy                                      0x20000258   Data          20  main.o(.bss)
    Motor                                    0x20000334   Data          32  bsp_motor.o(.bss)
    cmd_buffer                               0x2000041c   Data          64  bsp_uart_lcd.o(.bss)
    FilterTem                                0x20000524   Data          24  filter.o(.bss)
    data_saved                               0x20000604   Data          80  save2flash.o(.bss)
    Ble                                      0x20000ee4   Data          30  bsp_ble.o(.bss)
    PressureTable                            0x20000f04   Data          28  hx711.o(.bss)
    __initial_sp                             0x200044f0   Data           0  startup_stm32f10x_hd.o(STACK)



==============================================================================

Memory Map of the image

  Image Entry point : 0x08000131

  Load Region LR_IROM1 (Base: 0x08000000, Size: 0x000065cc, Max: 0x00080000, ABSOLUTE, COMPRESSED[0x000064c8])

    Execution Region ER_IROM1 (Exec base: 0x08000000, Load base: 0x08000000, Size: 0x0000643c, Max: 0x00080000, ABSOLUTE)

    Exec Addr    Load Addr    Size         Type   Attr      Idx    E Section Name        Object

    0x08000000   0x08000000   0x00000130   Data   RO         2559    RESET               startup_stm32f10x_hd.o
    0x08000130   0x08000130   0x00000000   Code   RO         4866  * .ARM.Collect$$$$00000000  mc_w.l(entry.o)
    0x08000130   0x08000130   0x00000004   Code   RO         5161    .ARM.Collect$$$$00000001  mc_w.l(entry2.o)
    0x08000134   0x08000134   0x00000004   Code   RO         5164    .ARM.Collect$$$$00000004  mc_w.l(entry5.o)
    0x08000138   0x08000138   0x00000000   Code   RO         5166    .ARM.Collect$$$$00000008  mc_w.l(entry7b.o)
    0x08000138   0x08000138   0x00000000   Code   RO         5168    .ARM.Collect$$$$0000000A  mc_w.l(entry8b.o)
    0x08000138   0x08000138   0x00000008   Code   RO         5169    .ARM.Collect$$$$0000000B  mc_w.l(entry9a.o)
    0x08000140   0x08000140   0x00000000   Code   RO         5171    .ARM.Collect$$$$0000000D  mc_w.l(entry10a.o)
    0x08000140   0x08000140   0x00000000   Code   RO         5173    .ARM.Collect$$$$0000000F  mc_w.l(entry11a.o)
    0x08000140   0x08000140   0x00000004   Code   RO         5162    .ARM.Collect$$$$00002712  mc_w.l(entry2.o)
    0x08000144   0x08000144   0x000000a2   Code   RO         4746    .emb_text           port.o
    0x080001e6   0x080001e6   0x00000002   PAD
    0x080001e8   0x080001e8   0x00000024   Code   RO         2560    .text               startup_stm32f10x_hd.o
    0x0800020c   0x0800020c   0x00000024   Code   RO         4872    .text               mc_w.l(memcpya.o)
    0x08000230   0x08000230   0x00000038   Code   RO         5141    .text               mc_w.l(__0sscanf.o)
    0x08000268   0x08000268   0x0000014c   Code   RO         5143    .text               mc_w.l(_scanf_int.o)
    0x080003b4   0x080003b4   0x00000064   Code   RO         5145    .text               mf_w.l(fmul.o)
    0x08000418   0x08000418   0x0000007c   Code   RO         5147    .text               mf_w.l(fdiv.o)
    0x08000494   0x08000494   0x000000e4   Code   RO         5149    .text               mf_w.l(dmul.o)
    0x08000578   0x08000578   0x000000de   Code   RO         5151    .text               mf_w.l(ddiv.o)
    0x08000656   0x08000656   0x0000000a   Code   RO         5153    .text               mf_w.l(ffltui.o)
    0x08000660   0x08000660   0x00000028   Code   RO         5155    .text               mf_w.l(ffixui.o)
    0x08000688   0x08000688   0x00000026   Code   RO         5157    .text               mf_w.l(f2d.o)
    0x080006ae   0x080006ae   0x00000038   Code   RO         5159    .text               mf_w.l(d2f.o)
    0x080006e6   0x080006e6   0x00000062   Code   RO         5178    .text               mc_w.l(uldiv.o)
    0x08000748   0x08000748   0x0000001c   Code   RO         5180    .text               mc_w.l(_chval.o)
    0x08000764   0x08000764   0x00000028   Code   RO         5182    .text               mc_w.l(scanf_char.o)
    0x0800078c   0x0800078c   0x00000040   Code   RO         5184    .text               mc_w.l(_sgetc.o)
    0x080007cc   0x080007cc   0x00000000   Code   RO         5186    .text               mc_w.l(iusefp.o)
    0x080007cc   0x080007cc   0x0000006e   Code   RO         5187    .text               mf_w.l(fepilogue.o)
    0x0800083a   0x0800083a   0x000000ba   Code   RO         5189    .text               mf_w.l(depilogue.o)
    0x080008f4   0x080008f4   0x00000024   Code   RO         5197    .text               mc_w.l(init.o)
    0x08000918   0x08000918   0x0000001e   Code   RO         5199    .text               mc_w.l(llshl.o)
    0x08000936   0x08000936   0x00000020   Code   RO         5201    .text               mc_w.l(llushr.o)
    0x08000956   0x08000956   0x0000000a   Code   RO         5205    .text               mc_w.l(isspace_c.o)
    0x08000960   0x08000960   0x0000032c   Code   RO         5207    .text               mc_w.l(_scanf.o)
    0x08000c8c   0x08000c8c   0x00000028   Code   RO         5209    .text               mc_w.l(ctype_c.o)
    0x08000cb4   0x08000cb4   0x00000056   Code   RO         5220    .text               mc_w.l(__dczerorl2.o)
    0x08000d0a   0x08000d0a   0x00000002   PAD
    0x08000d0c   0x08000d0c   0x00000030   Code   RO         1421    i.ADC1_2_IRQHandler  bsp_adc_int.o
    0x08000d3c   0x08000d3c   0x00000024   Code   RO         1422    i.ADC1_GPIO_Config  bsp_adc_int.o
    0x08000d60   0x08000d60   0x000000f8   Code   RO         1423    i.ADC1_GetV         bsp_adc_int.o
    0x08000e58   0x08000e58   0x00000018   Code   RO         1424    i.ADC1_InSigEn      bsp_adc_int.o
    0x08000e70   0x08000e70   0x00000040   Code   RO         1425    i.ADC1_InSigEnInit  bsp_adc_int.o
    0x08000eb0   0x08000eb0   0x00000018   Code   RO         1426    i.ADC1_Init         bsp_adc_int.o
    0x08000ec8   0x08000ec8   0x0000008c   Code   RO         1427    i.ADC1_Mode_Config  bsp_adc_int.o
    0x08000f54   0x08000f54   0x0000000a   Code   RO         3871    i.ADC_ClearITPendingBit  stm32f10x_adc.o
    0x08000f5e   0x08000f5e   0x00000016   Code   RO         3872    i.ADC_Cmd           stm32f10x_adc.o
    0x08000f74   0x08000f74   0x00000014   Code   RO         3880    i.ADC_GetCalibrationStatus  stm32f10x_adc.o
    0x08000f88   0x08000f88   0x00000008   Code   RO         3881    i.ADC_GetConversionValue  stm32f10x_adc.o
    0x08000f90   0x08000f90   0x00000024   Code   RO         3884    i.ADC_GetITStatus   stm32f10x_adc.o
    0x08000fb4   0x08000fb4   0x00000014   Code   RO         3886    i.ADC_GetResetCalibrationStatus  stm32f10x_adc.o
    0x08000fc8   0x08000fc8   0x00000018   Code   RO         3889    i.ADC_ITConfig      stm32f10x_adc.o
    0x08000fe0   0x08000fe0   0x00000050   Code   RO         3890    i.ADC_Init          stm32f10x_adc.o
    0x08001030   0x08001030   0x00000022   Code   RO         1428    i.ADC_NVIC_Config   bsp_adc_int.o
    0x08001052   0x08001052   0x000000b8   Code   RO         3894    i.ADC_RegularChannelConfig  stm32f10x_adc.o
    0x0800110a   0x0800110a   0x0000000a   Code   RO         3895    i.ADC_ResetCalibration  stm32f10x_adc.o
    0x08001114   0x08001114   0x00000016   Code   RO         3897    i.ADC_SoftwareStartConvCmd  stm32f10x_adc.o
    0x0800112a   0x0800112a   0x0000000a   Code   RO         3899    i.ADC_StartCalibration  stm32f10x_adc.o
    0x08001134   0x08001134   0x00000052   Code   RO         1713    i.AnimationPlayFrame  hmi_driver.o
    0x08001186   0x08001186   0x00000002   PAD
    0x08001188   0x08001188   0x000000e8   Code   RO            3    i.AppTaskCreate     main.o
    0x08001270   0x08001270   0x00000034   Code   RO         1324    i.BEEP_InitHard     bsp_beep.o
    0x080012a4   0x080012a4   0x00000038   Code   RO         1519    i.BLE_HwReset       bsp_ble.o
    0x080012dc   0x080012dc   0x0000000c   Code   RO         1520    i.BLE_Init          bsp_ble.o
    0x080012e8   0x080012e8   0x00000064   Code   RO         1521    i.BLE_IoInit        bsp_ble.o
    0x0800134c   0x0800134c   0x0000000c   Code   RO         1527    i.BLE_VarInit       bsp_ble.o
    0x08001358   0x08001358   0x00000004   Code   RO         1253    i.BusFault_Handler  stm32f10x_it.o
    0x0800135c   0x0800135c   0x00000038   Code   RO         1062    i.ComToUart         bsp_uart_fifo.o
    0x08001394   0x08001394   0x0000005e   Code   RO         1063    i.ConfigUartNVIC    bsp_uart_fifo.o
    0x080013f2   0x080013f2   0x00000002   Code   RO         1254    i.DebugMon_Handler  stm32f10x_it.o
    0x080013f4   0x080013f4   0x00000010   Code   RO          599    i.FILTER_Clear      filter.o
    0x08001404   0x08001404   0x000000ac   Code   RO          600    i.FILTER_Get        filter.o
    0x080014b0   0x080014b0   0x00000030   Code   RO          601    i.FILTER_Push       filter.o
    0x080014e0   0x080014e0   0x0000004c   Code   RO         3133    i.FLASH_ErasePage   stm32f10x_flash.o
    0x0800152c   0x0800152c   0x00000034   Code   RO         3134    i.FLASH_GetBank1Status  stm32f10x_flash.o
    0x08001560   0x08001560   0x00000014   Code   RO         3143    i.FLASH_Lock        stm32f10x_flash.o
    0x08001574   0x08001574   0x00000040   Code   RO         3146    i.FLASH_ProgramHalfWord  stm32f10x_flash.o
    0x080015b4   0x080015b4   0x00000018   Code   RO         3151    i.FLASH_Unlock      stm32f10x_flash.o
    0x080015cc   0x080015cc   0x00000026   Code   RO         3155    i.FLASH_WaitForLastOperation  stm32f10x_flash.o
    0x080015f2   0x080015f2   0x00000116   Code   RO         2616    i.GPIO_Init         stm32f10x_gpio.o
    0x08001708   0x08001708   0x00000008   Code   RO         2619    i.GPIO_ReadInputData  stm32f10x_gpio.o
    0x08001710   0x08001710   0x00000012   Code   RO         2620    i.GPIO_ReadInputDataBit  stm32f10x_gpio.o
    0x08001722   0x08001722   0x00000004   Code   RO         2623    i.GPIO_ResetBits    stm32f10x_gpio.o
    0x08001726   0x08001726   0x00000004   Code   RO         2624    i.GPIO_SetBits      stm32f10x_gpio.o
    0x0800172a   0x0800172a   0x00000002   PAD
    0x0800172c   0x0800172c   0x00000040   Code   RO         2515    i.HX711_Init        hx711.o
    0x0800176c   0x0800176c   0x00000090   Code   RO         2516    i.HX711_Read        hx711.o
    0x080017fc   0x080017fc   0x00000058   Code   RO         1255    i.HardFault_Handler  stm32f10x_it.o
    0x08001854   0x08001854   0x000001ac   Code   RO         1064    i.InitHardUart      bsp_uart_fifo.o
    0x08001a00   0x08001a00   0x00000018   Code   RO          882    i.IsKeyDown1        bsp_key.o
    0x08001a18   0x08001a18   0x00000018   Code   RO          883    i.IsKeyDown10       bsp_key.o
    0x08001a30   0x08001a30   0x00000018   Code   RO          884    i.IsKeyDown11       bsp_key.o
    0x08001a48   0x08001a48   0x00000018   Code   RO          885    i.IsKeyDown2        bsp_key.o
    0x08001a60   0x08001a60   0x00000018   Code   RO          886    i.IsKeyDown3        bsp_key.o
    0x08001a78   0x08001a78   0x00000018   Code   RO          887    i.IsKeyDown4        bsp_key.o
    0x08001a90   0x08001a90   0x00000018   Code   RO          888    i.IsKeyDown5        bsp_key.o
    0x08001aa8   0x08001aa8   0x00000018   Code   RO          889    i.IsKeyDown6        bsp_key.o
    0x08001ac0   0x08001ac0   0x00000018   Code   RO          890    i.IsKeyDown7        bsp_key.o
    0x08001ad8   0x08001ad8   0x00000018   Code   RO          891    i.IsKeyDown8        bsp_key.o
    0x08001af0   0x08001af0   0x00000018   Code   RO          892    i.IsKeyDown9        bsp_key.o
    0x08001b08   0x08001b08   0x0000012c   Code   RO          441    i.LCD_ParaInit      bsp_uart_lcd.o
    0x08001c34   0x08001c34   0x0000000c   Code   RO          300    i.MOTOR_ClrStep     bsp_motor.o
    0x08001c40   0x08001c40   0x00000024   Code   RO          301    i.MOTOR_Init        bsp_motor.o
    0x08001c64   0x08001c64   0x00000060   Code   RO          302    i.MOTOR_SetDir      bsp_motor.o
    0x08001cc4   0x08001cc4   0x00000058   Code   RO          303    i.MOTOR_SetSpeed    bsp_motor.o
    0x08001d1c   0x08001d1c   0x00000024   Code   RO          304    i.MOTOR_Start       bsp_motor.o
    0x08001d40   0x08001d40   0x00000020   Code   RO          305    i.MOTOR_Stop        bsp_motor.o
    0x08001d60   0x08001d60   0x00000004   Code   RO         1256    i.MemManage_Handler  stm32f10x_it.o
    0x08001d64   0x08001d64   0x00000024   Code   RO          688    i.MemReadByte       save2flash.o
    0x08001d88   0x08001d88   0x00000058   Code   RO          689    i.MemWriteByte      save2flash.o
    0x08001de0   0x08001de0   0x00000002   Code   RO         1257    i.NMI_Handler       stm32f10x_it.o
    0x08001de2   0x08001de2   0x0000000e   Code   RO          442    i.NOTIFYHandShake   bsp_uart_lcd.o
    0x08001df0   0x08001df0   0x00000070   Code   RO         2566    i.NVIC_Init         misc.o
    0x08001e60   0x08001e60   0x00000014   Code   RO         2567    i.NVIC_PriorityGroupConfig  misc.o
    0x08001e74   0x08001e74   0x000002e8   Code   RO          443    i.NotifyButton      bsp_uart_lcd.o
    0x0800215c   0x0800215c   0x00000002   Code   RO          444    i.NotifyMenu        bsp_uart_lcd.o
    0x0800215e   0x0800215e   0x00000002   Code   RO          445    i.NotifyMeter       bsp_uart_lcd.o
    0x08002160   0x08002160   0x00000002   Code   RO          446    i.NotifyProgress    bsp_uart_lcd.o
    0x08002162   0x08002162   0x00000002   Code   RO          447    i.NotifyReadFlash   bsp_uart_lcd.o
    0x08002164   0x08002164   0x00000008   Code   RO          448    i.NotifyReadRTC     bsp_uart_lcd.o
    0x0800216c   0x0800216c   0x00000050   Code   RO          449    i.NotifyScreen      bsp_uart_lcd.o
    0x080021bc   0x080021bc   0x00000002   Code   RO          450    i.NotifySelector    bsp_uart_lcd.o
    0x080021be   0x080021be   0x00000032   Code   RO          451    i.NotifySlider      bsp_uart_lcd.o
    0x080021f0   0x080021f0   0x0000006c   Code   RO          452    i.NotifyText        bsp_uart_lcd.o
    0x0800225c   0x0800225c   0x00000002   Code   RO          453    i.NotifyTimer       bsp_uart_lcd.o
    0x0800225e   0x0800225e   0x00000002   Code   RO          454    i.NotifyTouchXY     bsp_uart_lcd.o
    0x08002260   0x08002260   0x00000002   Code   RO          455    i.NotifyWriteFlash  bsp_uart_lcd.o
    0x08002262   0x08002262   0x00000002   PAD
    0x08002264   0x08002264   0x00000020   Code   RO         2517    i.PRE_Adjust        hx711.o
    0x08002284   0x08002284   0x00000024   Code   RO         2518    i.PRE_GetLevel      hx711.o
    0x080022a8   0x080022a8   0x00000040   Code   RO         1781    i.PlayMusic         hmi_driver.o
    0x080022e8   0x080022e8   0x00000184   Code   RO          456    i.ProcessMessage    bsp_uart_lcd.o
    0x0800246c   0x0800246c   0x00000020   Code   RO         2733    i.RCC_AHBPeriphClockCmd  stm32f10x_rcc.o
    0x0800248c   0x0800248c   0x00000020   Code   RO         2734    i.RCC_APB1PeriphClockCmd  stm32f10x_rcc.o
    0x080024ac   0x080024ac   0x00000020   Code   RO         2736    i.RCC_APB2PeriphClockCmd  stm32f10x_rcc.o
    0x080024cc   0x080024cc   0x000000d4   Code   RO         2744    i.RCC_GetClocksFreq  stm32f10x_rcc.o
    0x080025a0   0x080025a0   0x0000002c   Code   RO         1065    i.RS485_InitTXE     bsp_uart_fifo.o
    0x080025cc   0x080025cc   0x00000014   Code   RO          693    i.ReadFromFlash     save2flash.o
    0x080025e0   0x080025e0   0x00000010   Code   RO          696    i.SaveToFlash       save2flash.o
    0x080025f0   0x080025f0   0x0000000e   Code   RO         2434    i.SendChar          hmi_user_uart.o
    0x080025fe   0x080025fe   0x00000016   Code   RO         1793    i.SendStrings       hmi_driver.o
    0x08002614   0x08002614   0x00000052   Code   RO         1796    i.SetButtonValue    hmi_driver.o
    0x08002666   0x08002666   0x00000030   Code   RO         1797    i.SetBuzzer         hmi_driver.o
    0x08002696   0x08002696   0x00000052   Code   RO         1800    i.SetControlEnable  hmi_driver.o
    0x080026e8   0x080026e8   0x00000052   Code   RO         1803    i.SetControlVisiable  hmi_driver.o
    0x0800273a   0x0800273a   0x00000068   Code   RO         1811    i.SetProgressValue  hmi_driver.o
    0x080027a2   0x080027a2   0x00000008   Code   RO         4096    i.SetSysClock       system_stm32f10x.o
    0x080027aa   0x080027aa   0x00000002   PAD
    0x080027ac   0x080027ac   0x000000e0   Code   RO         4097    i.SetSysClockTo72   system_stm32f10x.o
    0x0800288c   0x0800288c   0x0000008c   Code   RO         1817    i.SetTextInt32      hmi_driver.o
    0x08002918   0x08002918   0x00000052   Code   RO         1819    i.SetTextValue      hmi_driver.o
    0x0800296a   0x0800296a   0x00000002   PAD
    0x0800296c   0x0800296c   0x00000020   Code   RO         4747    i.SysTick_Handler   port.o
    0x0800298c   0x0800298c   0x00000060   Code   RO         4099    i.SystemInit        system_stm32f10x.o
    0x080029ec   0x080029ec   0x00000050   Code   RO          307    i.TIM1_UP_IRQHandler  bsp_motor.o
    0x08002a3c   0x08002a3c   0x000000c8   Code   RO          308    i.TIM1_config       bsp_motor.o
    0x08002b04   0x08002b04   0x00000094   Code   RO         1370    i.TIM2_IRQHandler   bsp_simple_timer.o
    0x08002b98   0x08002b98   0x00000058   Code   RO         1371    i.TIM3_IRQHandler   bsp_simple_timer.o
    0x08002bf0   0x08002bf0   0x00000018   Code   RO         3314    i.TIM_ARRPreloadConfig  stm32f10x_tim.o
    0x08002c08   0x08002c08   0x00000006   Code   RO         3321    i.TIM_ClearITPendingBit  stm32f10x_tim.o
    0x08002c0e   0x08002c0e   0x00000018   Code   RO         3326    i.TIM_Cmd           stm32f10x_tim.o
    0x08002c26   0x08002c26   0x0000001e   Code   RO         3328    i.TIM_CtrlPWMOutputs  stm32f10x_tim.o
    0x08002c44   0x08002c44   0x00000022   Code   RO         3347    i.TIM_GetITStatus   stm32f10x_tim.o
    0x08002c66   0x08002c66   0x00000012   Code   RO         3351    i.TIM_ITConfig      stm32f10x_tim.o
    0x08002c78   0x08002c78   0x0000007c   Code   RO         3370    i.TIM_OC4Init       stm32f10x_tim.o
    0x08002cf4   0x08002cf4   0x0000001a   Code   RO         3372    i.TIM_OC4PreloadConfig  stm32f10x_tim.o
    0x08002d0e   0x08002d0e   0x00000012   Code   RO         3383    i.TIM_SelectOutputTrigger  stm32f10x_tim.o
    0x08002d20   0x08002d20   0x00000004   Code   RO         3385    i.TIM_SetAutoreload  stm32f10x_tim.o
    0x08002d24   0x08002d24   0x00000006   Code   RO         3390    i.TIM_SetCompare4   stm32f10x_tim.o
    0x08002d2a   0x08002d2a   0x00000004   Code   RO         3391    i.TIM_SetCounter    stm32f10x_tim.o
    0x08002d2e   0x08002d2e   0x00000002   PAD
    0x08002d30   0x08002d30   0x000000a4   Code   RO         3397    i.TIM_TimeBaseInit  stm32f10x_tim.o
    0x08002dd4   0x08002dd4   0x00000054   Code   RO            6    i.TMY_ParaInit      main.o
    0x08002e28   0x08002e28   0x0000000c   Code   RO         1372    i.TimeInit          bsp_simple_timer.o
    0x08002e34   0x08002e34   0x00000010   Code   RO         1071    i.UART4_IRQHandler  bsp_uart_fifo.o
    0x08002e44   0x08002e44   0x00000034   Code   RO          457    i.ULCD_Init         bsp_uart_lcd.o
    0x08002e78   0x08002e78   0x00000048   Code   RO          458    i.ULCD_InitIO       bsp_uart_lcd.o
    0x08002ec0   0x08002ec0   0x000000ac   Code   RO          459    i.ULCD_Task         bsp_uart_lcd.o
    0x08002f6c   0x08002f6c   0x00000010   Code   RO         1072    i.USART1_IRQHandler  bsp_uart_fifo.o
    0x08002f7c   0x08002f7c   0x00000010   Code   RO         1073    i.USART2_IRQHandler  bsp_uart_fifo.o
    0x08002f8c   0x08002f8c   0x00000012   Code   RO         2940    i.USART_ClearFlag   stm32f10x_usart.o
    0x08002f9e   0x08002f9e   0x00000018   Code   RO         2944    i.USART_Cmd         stm32f10x_usart.o
    0x08002fb6   0x08002fb6   0x0000001a   Code   RO         2947    i.USART_GetFlagStatus  stm32f10x_usart.o
    0x08002fd0   0x08002fd0   0x00000054   Code   RO         2948    i.USART_GetITStatus  stm32f10x_usart.o
    0x08003024   0x08003024   0x0000004a   Code   RO         2950    i.USART_ITConfig    stm32f10x_usart.o
    0x0800306e   0x0800306e   0x00000002   PAD
    0x08003070   0x08003070   0x000000d8   Code   RO         2951    i.USART_Init        stm32f10x_usart.o
    0x08003148   0x08003148   0x0000000a   Code   RO         2958    i.USART_ReceiveData  stm32f10x_usart.o
    0x08003152   0x08003152   0x00000008   Code   RO         2961    i.USART_SendData    stm32f10x_usart.o
    0x0800315a   0x0800315a   0x00000042   Code   RO         1074    i.UartGetChar       bsp_uart_fifo.o
    0x0800319c   0x0800319c   0x000000e6   Code   RO         1075    i.UartIRQ           bsp_uart_fifo.o
    0x08003282   0x08003282   0x0000006a   Code   RO         1076    i.UartSend          bsp_uart_fifo.o
    0x080032ec   0x080032ec   0x000000b0   Code   RO         1077    i.UartVarInit       bsp_uart_fifo.o
    0x0800339c   0x0800339c   0x0000022c   Code   RO          460    i.UpdateUI          bsp_uart_lcd.o
    0x080035c8   0x080035c8   0x00000004   Code   RO         1258    i.UsageFault_Handler  stm32f10x_it.o
    0x080035cc   0x080035cc   0x00000020   Code   RO         5087    i.__0printf$8       mc_w.l(printf8.o)
    0x080035ec   0x080035ec   0x0000000e   Code   RO         5214    i.__scatterload_copy  mc_w.l(handlers.o)
    0x080035fa   0x080035fa   0x00000002   Code   RO         5215    i.__scatterload_null  mc_w.l(handlers.o)
    0x080035fc   0x080035fc   0x0000000e   Code   RO         5216    i.__scatterload_zeroinit  mc_w.l(handlers.o)
    0x0800360a   0x0800360a   0x00000002   PAD
    0x0800360c   0x0800360c   0x00000410   Code   RO         5094    i._printf_core      mc_w.l(printf8.o)
    0x08003a1c   0x08003a1c   0x00000024   Code   RO         5095    i._printf_post_padding  mc_w.l(printf8.o)
    0x08003a40   0x08003a40   0x0000002e   Code   RO         5096    i._printf_pre_padding  mc_w.l(printf8.o)
    0x08003a6e   0x08003a6e   0x00000002   PAD
    0x08003a70   0x08003a70   0x000000cc   Code   RO          894    i.bsp_DetectKey     bsp_key.o
    0x08003b3c   0x08003b3c   0x00000034   Code   RO          895    i.bsp_GetKey        bsp_key.o
    0x08003b70   0x08003b70   0x00000010   Code   RO          897    i.bsp_GetKeyState   bsp_key.o
    0x08003b80   0x08003b80   0x00000028   Code   RO          860    i.bsp_Init          bsp.o
    0x08003ba8   0x08003ba8   0x00000028   Code   RO         1482    i.bsp_InitDWT       bsp_dwt.o
    0x08003bd0   0x08003bd0   0x0000000c   Code   RO          898    i.bsp_InitKey       bsp_key.o
    0x08003bdc   0x08003bdc   0x000000c4   Code   RO          899    i.bsp_InitKeyHard   bsp_key.o
    0x08003ca0   0x08003ca0   0x000000b0   Code   RO          900    i.bsp_InitKeyVar    bsp_key.o
    0x08003d50   0x08003d50   0x00000074   Code   RO         1016    i.bsp_InitLed       bsp_led.o
    0x08003dc4   0x08003dc4   0x00000014   Code   RO         1078    i.bsp_InitUart      bsp_uart_fifo.o
    0x08003dd8   0x08003dd8   0x00000016   Code   RO          901    i.bsp_KeyScan       bsp_key.o
    0x08003dee   0x08003dee   0x00000002   PAD
    0x08003df0   0x08003df0   0x0000003c   Code   RO         1018    i.bsp_LedOff        bsp_led.o
    0x08003e2c   0x08003e2c   0x00000020   Code   RO          902    i.bsp_PutKey        bsp_key.o
    0x08003e4c   0x08003e4c   0x0000001e   Code   RO         1085    i.comGetChar        bsp_uart_fifo.o
    0x08003e6a   0x08003e6a   0x00000010   Code   RO         1086    i.comGetLen         bsp_uart_fifo.o
    0x08003e7a   0x08003e7a   0x0000002e   Code   RO         1087    i.comSendBuf        bsp_uart_fifo.o
    0x08003ea8   0x08003ea8   0x00000018   Code   RO          638    i.debug_ble         debug.o
    0x08003ec0   0x08003ec0   0x0000000c   Code   RO          639    i.debug_en          debug.o
    0x08003ecc   0x08003ecc   0x00000018   Code   RO          640    i.debug_usr         debug.o
    0x08003ee4   0x08003ee4   0x00000012   Code   RO         1483    i.delay_ms          bsp_dwt.o
    0x08003ef6   0x08003ef6   0x0000000e   Code   RO         1484    i.delay_us          bsp_dwt.o
    0x08003f04   0x08003f04   0x00000024   Code   RO         1091    i.fputc             bsp_uart_fifo.o
    0x08003f28   0x08003f28   0x0000002a   Code   RO            7    i.main              main.o
    0x08003f52   0x08003f52   0x00000002   PAD
    0x08003f54   0x08003f54   0x00000038   Code   RO          310    i.motor_dir_init    bsp_motor.o
    0x08003f8c   0x08003f8c   0x0000000c   Code   RO          311    i.motor_pul_init    bsp_motor.o
    0x08003f98   0x08003f98   0x00000054   Code   RO         4382    i.prvAddCurrentTaskToDelayedList  tasks.o
    0x08003fec   0x08003fec   0x00000036   Code   RO         4383    i.prvAllocateTCBAndStack  tasks.o
    0x08004022   0x08004022   0x00000002   PAD
    0x08004024   0x08004024   0x0000005c   Code   RO         4651    i.prvCheckForValidListAndQueue  timers.o
    0x08004080   0x08004080   0x00000064   Code   RO         4384    i.prvCheckTasksWaitingTermination  tasks.o
    0x080040e4   0x080040e4   0x0000002a   Code   RO         4258    i.prvCopyDataFromQueue  queue.o
    0x0800410e   0x0800410e   0x0000006e   Code   RO         4259    i.prvCopyDataToQueue  queue.o
    0x0800417c   0x0800417c   0x00000012   Code   RO         4385    i.prvDeleteTCB      tasks.o
    0x0800418e   0x0800418e   0x00000002   PAD
    0x08004190   0x08004190   0x00000028   Code   RO         4652    i.prvGetNextExpireTime  timers.o
    0x080041b8   0x080041b8   0x0000007c   Code   RO         4817    i.prvHeapInit       heap_4.o
    0x08004234   0x08004234   0x00000018   Code   RO         4386    i.prvIdleTask       tasks.o
    0x0800424c   0x0800424c   0x0000005c   Code   RO         4387    i.prvInitialiseTCBVariables  tasks.o
    0x080042a8   0x080042a8   0x00000068   Code   RO         4388    i.prvInitialiseTaskLists  tasks.o
    0x08004310   0x08004310   0x00000068   Code   RO         4818    i.prvInsertBlockIntoFreeList  heap_4.o
    0x08004378   0x08004378   0x00000058   Code   RO         4653    i.prvInsertTimerInActiveList  timers.o
    0x080043d0   0x080043d0   0x0000001a   Code   RO         4260    i.prvIsQueueEmpty   queue.o
    0x080043ea   0x080043ea   0x0000001e   Code   RO         4261    i.prvIsQueueFull    queue.o
    0x08004408   0x08004408   0x00000058   Code   RO         4654    i.prvProcessExpiredTimer  timers.o
    0x08004460   0x08004460   0x000000dc   Code   RO         4655    i.prvProcessReceivedCommands  timers.o
    0x0800453c   0x0800453c   0x00000064   Code   RO         4656    i.prvProcessTimerOrBlockTask  timers.o
    0x080045a0   0x080045a0   0x00000034   Code   RO         4389    i.prvResetNextTaskUnblockTime  tasks.o
    0x080045d4   0x080045d4   0x0000002c   Code   RO         4657    i.prvSampleTimeNow  timers.o
    0x08004600   0x08004600   0x00000090   Code   RO         4658    i.prvSwitchTimerLists  timers.o
    0x08004690   0x08004690   0x00000024   Code   RO         4748    i.prvTaskExitError  port.o
    0x080046b4   0x080046b4   0x0000001a   Code   RO         4659    i.prvTimerTask      timers.o
    0x080046ce   0x080046ce   0x0000007e   Code   RO         4262    i.prvUnlockQueue    queue.o
    0x0800474c   0x0800474c   0x00000114   Code   RO         4819    i.pvPortMalloc      heap_4.o
    0x08004860   0x08004860   0x00000020   Code   RO         4749    i.pxPortInitialiseStack  port.o
    0x08004880   0x08004880   0x00000064   Code   RO         1661    i.queue_find_cmd    cmd_queue.o
    0x080048e4   0x080048e4   0x0000008c   Code   RO            8    i.start_set         main.o
    0x08004970   0x08004970   0x00000064   Code   RO         1373    i.timer2_init       bsp_simple_timer.o
    0x080049d4   0x080049d4   0x00000070   Code   RO         1374    i.timer3_init       bsp_simple_timer.o
    0x08004a44   0x08004a44   0x00000028   Code   RO         4222    i.uxListRemove      list.o
    0x08004a6c   0x08004a6c   0x0000001a   Code   RO         4223    i.vListInitialise   list.o
    0x08004a86   0x08004a86   0x00000006   Code   RO         4224    i.vListInitialiseItem  list.o
    0x08004a8c   0x08004a8c   0x00000034   Code   RO         4225    i.vListInsert       list.o
    0x08004ac0   0x08004ac0   0x00000018   Code   RO         4226    i.vListInsertEnd    list.o
    0x08004ad8   0x08004ad8   0x00000044   Code   RO         4751    i.vPortEnterCritical  port.o
    0x08004b1c   0x08004b1c   0x0000002c   Code   RO         4752    i.vPortExitCritical  port.o
    0x08004b48   0x08004b48   0x00000078   Code   RO         4820    i.vPortFree         heap_4.o
    0x08004bc0   0x08004bc0   0x00000014   Code   RO         4753    i.vPortSetupTimerInterrupt  port.o
    0x08004bd4   0x08004bd4   0x0000005c   Code   RO         4754    i.vPortValidateInterruptPriority  port.o
    0x08004c30   0x08004c30   0x00000018   Code   RO         4755    i.vPortYield        port.o
    0x08004c48   0x08004c48   0x00000042   Code   RO         4267    i.vQueueWaitForMessageRestricted  queue.o
    0x08004c8a   0x08004c8a   0x00000002   PAD
    0x08004c8c   0x08004c8c   0x00000028   Code   RO            9    i.vTaskAdc          main.o
    0x08004cb4   0x08004cb4   0x00000058   Code   RO           10    i.vTaskBle          main.o
    0x08004d0c   0x08004d0c   0x00000070   Code   RO         4396    i.vTaskDelay        tasks.o
    0x08004d7c   0x08004d7c   0x0000002c   Code   RO           11    i.vTaskLCD          main.o
    0x08004da8   0x08004da8   0x0000000c   Code   RO         4400    i.vTaskMissedYield  tasks.o
    0x08004db4   0x08004db4   0x00000904   Code   RO           12    i.vTaskMotorCtrl    main.o
    0x080056b8   0x080056b8   0x00000070   Code   RO         4402    i.vTaskPlaceOnEventList  tasks.o
    0x08005728   0x08005728   0x00000074   Code   RO         4403    i.vTaskPlaceOnEventListRestricted  tasks.o
    0x0800579c   0x0800579c   0x0000013c   Code   RO           13    i.vTaskSensor       main.o
    0x080058d8   0x080058d8   0x00000024   Code   RO         4407    i.vTaskSetTimeOutState  tasks.o
    0x080058fc   0x080058fc   0x00000068   Code   RO         4408    i.vTaskStartScheduler  tasks.o
    0x08005964   0x08005964   0x00000010   Code   RO         4410    i.vTaskSuspendAll   tasks.o
    0x08005974   0x08005974   0x00000080   Code   RO         4411    i.vTaskSwitchContext  tasks.o
    0x080059f4   0x080059f4   0x000000a0   Code   RO         4756    i.xPortStartScheduler  port.o
    0x08005a94   0x08005a94   0x00000066   Code   RO         4268    i.xQueueGenericCreate  queue.o
    0x08005afa   0x08005afa   0x0000013c   Code   RO         4269    i.xQueueGenericReceive  queue.o
    0x08005c36   0x08005c36   0x00000078   Code   RO         4270    i.xQueueGenericReset  queue.o
    0x08005cae   0x08005cae   0x00000142   Code   RO         4271    i.xQueueGenericSend  queue.o
    0x08005df0   0x08005df0   0x000000ac   Code   RO         4272    i.xQueueGenericSendFromISR  queue.o
    0x08005e9c   0x08005e9c   0x00000074   Code   RO         4412    i.xTaskCheckForTimeOut  tasks.o
    0x08005f10   0x08005f10   0x00000134   Code   RO         4413    i.xTaskGenericCreate  tasks.o
    0x08006044   0x08006044   0x00000020   Code   RO         4416    i.xTaskGetSchedulerState  tasks.o
    0x08006064   0x08006064   0x0000000c   Code   RO         4417    i.xTaskGetTickCount  tasks.o
    0x08006070   0x08006070   0x0000013c   Code   RO         4419    i.xTaskIncrementTick  tasks.o
    0x080061ac   0x080061ac   0x0000008c   Code   RO         4422    i.xTaskRemoveFromEventList  tasks.o
    0x08006238   0x08006238   0x000000e8   Code   RO         4424    i.xTaskResumeAll    tasks.o
    0x08006320   0x08006320   0x00000048   Code   RO         4663    i.xTimerCreateTimerTask  timers.o
    0x08006368   0x08006368   0x00000074   Code   RO         4664    i.xTimerGenericCommand  timers.o
    0x080063dc   0x080063dc   0x00000040   Data   RO         5210    .constdata          mc_w.l(ctype_c.o)
    0x0800641c   0x0800641c   0x00000020   Data   RO         5212    Region$$Table       anon$$obj.o


    Execution Region RW_IRAM1 (Exec base: 0x20000000, Load base: 0x0800643c, Size: 0x000044f0, Max: 0x00010000, ABSOLUTE, COMPRESSED[0x0000008c])

    Exec Addr    Load Addr    Size         Type   Attr      Idx    E Section Name        Object

    0x20000000   COMPRESSED   0x00000018   Data   RW           15    .data               main.o
    0x20000018   COMPRESSED   0x000000d4   Data   RW          316    .data               bsp_motor.o
    0x200000ec   COMPRESSED   0x00000017   Data   RW          462    .data               bsp_uart_lcd.o
    0x20000103   COMPRESSED   0x00000001   Data   RW          643    .data               debug.o
    0x20000104   COMPRESSED   0x00000004   Data   RW         1376    .data               bsp_simple_timer.o
    0x20000108   COMPRESSED   0x00000001   Data   RW         1538    .data               bsp_ble.o
    0x20000109   COMPRESSED   0x00000014   Data   RW         2764    .data               stm32f10x_rcc.o
    0x2000011d   COMPRESSED   0x00000003   PAD
    0x20000120   COMPRESSED   0x00000038   Data   RW         4427    .data               tasks.o
    0x20000158   COMPRESSED   0x00000010   Data   RW         4667    .data               timers.o
    0x20000168   COMPRESSED   0x0000000c   Data   RW         4757    .data               port.o
    0x20000174   COMPRESSED   0x00000018   Data   RW         4825    .data               heap_4.o
    0x2000018c   COMPRESSED   0x00000004   Data   RW         5175    .data               mc_w.l(stdout.o)
    0x20000190        -       0x000000dc   Zero   RW           14    .bss                main.o
    0x2000026c        -       0x000000e8   Zero   RW          315    .bss                bsp_motor.o
    0x20000354        -       0x00000108   Zero   RW          461    .bss                bsp_uart_lcd.o
    0x2000045c        -       0x000000e0   Zero   RW          602    .bss                filter.o
    0x2000053c        -       0x00000118   Zero   RW          700    .bss                save2flash.o
    0x20000654        -       0x00000185   Zero   RW          904    .bss                bsp_key.o
    0x200007d9   COMPRESSED   0x00000003   PAD
    0x200007dc        -       0x00000640   Zero   RW         1092    .bss                bsp_uart_fifo.o
    0x20000e1c        -       0x000000e6   Zero   RW         1537    .bss                bsp_ble.o
    0x20000f02   COMPRESSED   0x00000002   PAD
    0x20000f04        -       0x000000e4   Zero   RW         2519    .bss                hx711.o
    0x20000fe8        -       0x000000dc   Zero   RW         4426    .bss                tasks.o
    0x200010c4        -       0x00000028   Zero   RW         4666    .bss                timers.o
    0x200010ec        -       0x00002c00   Zero   RW         4824    .bss                heap_4.o
    0x20003cec   COMPRESSED   0x00000004   PAD
    0x20003cf0        -       0x00000800   Zero   RW         2557    STACK               startup_stm32f10x_hd.o


==============================================================================

Image component sizes


      Code (inc. data)   RO Data    RW Data    ZI Data      Debug   Object Name

        40          0          0          0          0        459   bsp.o
       618         78          0          0          0       4182   bsp_adc_int.o
        52          4          0          0          0        504   bsp_beep.o
       180         34          0          1        230       3852   bsp_ble.o
        72         10          0          0          0       1432   bsp_dwt.o
       974        152          0          0        389      10176   bsp_key.o
       176         12          0          0          0       1035   bsp_led.o
       648         86          0        212        232       8741   bsp_motor.o
       460         42          0          4          0       3122   bsp_simple_timer.o
      1396        110          0          0       1600      10112   bsp_uart_fifo.o
      2560        266          0         23        264      15240   bsp_uart_lcd.o
       100          0          0          0          0       1697   cmd_queue.o
        60         18          0          1          0       1729   debug.o
         0          0          0          0          0       3864   event_groups.o
       236         16          0          0        224       2846   filter.o
       624         64          0         24      11264       3831   heap_4.o
       788          0          0          0          0       6577   hmi_driver.o
        14          0          0          0          0        479   hmi_user_uart.o
       276         22          0          0        228       2874   hx711.o
       148          0          0          0          0       3010   list.o
      3294        658          0         24        220     297847   main.o
       132         22          0          0          0       1667   misc.o
       670         86          0         12          0       7734   port.o
      1432          0          0          0          0       9726   queue.o
       160         20          0          0        280       4914   save2flash.o
        36          8        304          0       2048        892   startup_stm32f10x_hd.o
       446         10          0          0          0       9806   stm32f10x_adc.o
       274         30          0          0          0       3646   stm32f10x_flash.o
       312          0          0          0          0       4449   stm32f10x_gpio.o
       104         48          0          0          0       2729   stm32f10x_it.o
       308         38          0         20          0       5218   stm32f10x_rcc.o
       482         52          0          0          0       8652   stm32f10x_tim.o
       460          6          0          0          0       7079   stm32f10x_usart.o
       328         28          0          0          0       1921   system_stm32f10x.o
      2320        348          0         56        220      17303   tasks.o
      1030         96          0         16         40       8211   timers.o

    ----------------------------------------------------------------------
     21236       2364        336        396      17248     477556   Object Totals
         0          0         32          0          0          0   (incl. Generated)
        26          0          0          3          9          0   (incl. Padding)

    ----------------------------------------------------------------------

      Code (inc. data)   RO Data    RW Data    ZI Data      Debug   Library Member Name

        56          8          0          0          0         84   __0sscanf.o
        86          0          0          0          0          0   __dczerorl2.o
        28          0          0          0          0         68   _chval.o
       812          4          0          0          0        112   _scanf.o
       332          0          0          0          0         96   _scanf_int.o
        64          0          0          0          0         84   _sgetc.o
        40          6         64          0          0         68   ctype_c.o
         0          0          0          0          0          0   entry.o
         0          0          0          0          0          0   entry10a.o
         0          0          0          0          0          0   entry11a.o
         8          4          0          0          0          0   entry2.o
         4          0          0          0          0          0   entry5.o
         0          0          0          0          0          0   entry7b.o
         0          0          0          0          0          0   entry8b.o
         8          4          0          0          0          0   entry9a.o
        30          0          0          0          0          0   handlers.o
        36          8          0          0          0         68   init.o
        10          0          0          0          0         68   isspace_c.o
         0          0          0          0          0          0   iusefp.o
        30          0          0          0          0         68   llshl.o
        32          0          0          0          0         68   llushr.o
        36          0          0          0          0         68   memcpya.o
      1154         54          0          0          0        352   printf8.o
        40          8          0          0          0         84   scanf_char.o
         0          0          0          4          0          0   stdout.o
        98          0          0          0          0         92   uldiv.o
        56          0          0          0          0         88   d2f.o
       222          0          0          0          0        100   ddiv.o
       186          0          0          0          0        176   depilogue.o
       228          0          0          0          0         96   dmul.o
        38          0          0          0          0         68   f2d.o
       124          0          0          0          0         88   fdiv.o
       110          0          0          0          0        168   fepilogue.o
        40          0          0          0          0         68   ffixui.o
        10          0          0          0          0         68   ffltui.o
       100          0          0          0          0         76   fmul.o

    ----------------------------------------------------------------------
      4024         96         64          4          0       2376   Library Totals
         6          0          0          0          0          0   (incl. Padding)

    ----------------------------------------------------------------------

      Code (inc. data)   RO Data    RW Data    ZI Data      Debug   Library Name

      2904         96         64          4          0       1380   mc_w.l
      1114          0          0          0          0        996   mf_w.l

    ----------------------------------------------------------------------
      4024         96         64          4          0       2376   Library Totals

    ----------------------------------------------------------------------

==============================================================================


      Code (inc. data)   RO Data    RW Data    ZI Data      Debug   

     25260       2460        400        400      17248     466280   Grand Totals
     25260       2460        400        140      17248     466280   ELF Image Totals (compressed)
     25260       2460        400        140          0          0   ROM Totals

==============================================================================

    Total RO  Size (Code + RO Data)                25660 (  25.06kB)
    Total RW  Size (RW Data + ZI Data)             17648 (  17.23kB)
    Total ROM Size (Code + RO Data + RW Data)      25800 (  25.20kB)

==============================================================================

