; generated by Component: ARM Compiler 5.06 update 6 (build 750) Tool: ArmCC [4d3637]
; commandline ArmCC [--list --split_sections --debug -c --asm --interleave -o.\flash\obj\hmi_driver.o --asm_dir=.\Flash\List\ --list_dir=.\Flash\List\ --depend=.\flash\obj\hmi_driver.d --cpu=Cortex-M3 --apcs=interwork -O0 --diag_suppress=9931,870 -I..\..\Libraries\CMSIS\Device\ST\STM32F10x\Include -I..\..\Libraries\STM32F10x_StdPeriph_Driver\inc -I..\..\User\bsp -I..\..\User\bsp\inc -I..\..\User -I..\..\Libraries\CMSIS\Include -I..\..\FreeRTOS\include -I..\..\FreeRTOS\portable\RVDS\ARM_CM3 -I..\..\User\app -I..\..\User\lcd\inc -I..\..\User\hx711 -I.\RTE\_Flash -IC:\Keil_v5\ARM\PACK\ARM\CMSIS\5.4.0\CMSIS\Core\Include -IC:\Keil_v5\ARM\PACK\Keil\STM32F1xx_DFP\2.3.0\Device\Include -D__MICROLIB -D__UVISION_VERSION=526 -D_RTE_ -DSTM32F10X_HD -DUSE_STDPERIPH_DRIVER -DSTM32F10X_HD --omf_browse=.\flash\obj\hmi_driver.crf ..\..\User\lcd\src\hmi_driver.c]
                          THUMB

                          AREA ||i.AnimationPause||, CODE, READONLY, ALIGN=1

                  AnimationPause PROC
;;;1122   */
;;;1123   void AnimationPause(uint16 screen_id,uint16 control_id)
000000  b570              PUSH     {r4-r6,lr}
;;;1124   {
000002  4604              MOV      r4,r0
000004  460d              MOV      r5,r1
;;;1125       BEGIN_CMD();
000006  20ee              MOVS     r0,#0xee
000008  f7fffffe          BL       SendChar
;;;1126       TX_8(0xB1);
00000c  20b1              MOVS     r0,#0xb1
00000e  f7fffffe          BL       SendChar
;;;1127       TX_8(0x22);
000012  2022              MOVS     r0,#0x22
000014  f7fffffe          BL       SendChar
;;;1128       TX_16(screen_id);
000018  0a20              LSRS     r0,r4,#8
00001a  f7fffffe          BL       SendChar
00001e  b2e0              UXTB     r0,r4
000020  f7fffffe          BL       SendChar
;;;1129       TX_16(control_id);
000024  0a28              LSRS     r0,r5,#8
000026  f7fffffe          BL       SendChar
00002a  b2e8              UXTB     r0,r5
00002c  f7fffffe          BL       SendChar
;;;1130       END_CMD();
000030  20ff              MOVS     r0,#0xff
000032  f7fffffe          BL       SendChar
000036  20fc              MOVS     r0,#0xfc
000038  f7fffffe          BL       SendChar
00003c  20ff              MOVS     r0,#0xff
00003e  f7fffffe          BL       SendChar
000042  20ff              MOVS     r0,#0xff
000044  f7fffffe          BL       SendChar
;;;1131   }
000048  bd70              POP      {r4-r6,pc}
;;;1132   /*! 
                          ENDP


                          AREA ||i.AnimationPlayFrame||, CODE, READONLY, ALIGN=1

                  AnimationPlayFrame PROC
;;;1137   */
;;;1138   void AnimationPlayFrame(uint16 screen_id,uint16 control_id,uint8 frame_id)
000000  b570              PUSH     {r4-r6,lr}
;;;1139   {
000002  4604              MOV      r4,r0
000004  460d              MOV      r5,r1
000006  4616              MOV      r6,r2
;;;1140       BEGIN_CMD();
000008  20ee              MOVS     r0,#0xee
00000a  f7fffffe          BL       SendChar
;;;1141       TX_8(0xB1);
00000e  20b1              MOVS     r0,#0xb1
000010  f7fffffe          BL       SendChar
;;;1142       TX_8(0x23);
000014  2023              MOVS     r0,#0x23
000016  f7fffffe          BL       SendChar
;;;1143       TX_16(screen_id);
00001a  0a20              LSRS     r0,r4,#8
00001c  f7fffffe          BL       SendChar
000020  b2e0              UXTB     r0,r4
000022  f7fffffe          BL       SendChar
;;;1144       TX_16(control_id);
000026  0a28              LSRS     r0,r5,#8
000028  f7fffffe          BL       SendChar
00002c  b2e8              UXTB     r0,r5
00002e  f7fffffe          BL       SendChar
;;;1145       TX_8(frame_id);
000032  b2f0              UXTB     r0,r6
000034  f7fffffe          BL       SendChar
;;;1146       END_CMD();
000038  20ff              MOVS     r0,#0xff
00003a  f7fffffe          BL       SendChar
00003e  20fc              MOVS     r0,#0xfc
000040  f7fffffe          BL       SendChar
000044  20ff              MOVS     r0,#0xff
000046  f7fffffe          BL       SendChar
00004a  20ff              MOVS     r0,#0xff
00004c  f7fffffe          BL       SendChar
;;;1147   }
000050  bd70              POP      {r4-r6,pc}
;;;1148   /*! 
                          ENDP


                          AREA ||i.AnimationPlayNext||, CODE, READONLY, ALIGN=1

                  AnimationPlayNext PROC
;;;1166   */
;;;1167   void AnimationPlayNext(uint16 screen_id,uint16 control_id)
000000  b570              PUSH     {r4-r6,lr}
;;;1168   {
000002  4604              MOV      r4,r0
000004  460d              MOV      r5,r1
;;;1169       BEGIN_CMD();
000006  20ee              MOVS     r0,#0xee
000008  f7fffffe          BL       SendChar
;;;1170       TX_8(0xB1);
00000c  20b1              MOVS     r0,#0xb1
00000e  f7fffffe          BL       SendChar
;;;1171       TX_8(0x25);
000012  2025              MOVS     r0,#0x25
000014  f7fffffe          BL       SendChar
;;;1172       TX_16(screen_id);
000018  0a20              LSRS     r0,r4,#8
00001a  f7fffffe          BL       SendChar
00001e  b2e0              UXTB     r0,r4
000020  f7fffffe          BL       SendChar
;;;1173       TX_16(control_id);
000024  0a28              LSRS     r0,r5,#8
000026  f7fffffe          BL       SendChar
00002a  b2e8              UXTB     r0,r5
00002c  f7fffffe          BL       SendChar
;;;1174       END_CMD();
000030  20ff              MOVS     r0,#0xff
000032  f7fffffe          BL       SendChar
000036  20fc              MOVS     r0,#0xfc
000038  f7fffffe          BL       SendChar
00003c  20ff              MOVS     r0,#0xff
00003e  f7fffffe          BL       SendChar
000042  20ff              MOVS     r0,#0xff
000044  f7fffffe          BL       SendChar
;;;1175   }
000048  bd70              POP      {r4-r6,pc}
;;;1176   /*! 
                          ENDP


                          AREA ||i.AnimationPlayPrev||, CODE, READONLY, ALIGN=1

                  AnimationPlayPrev PROC
;;;1152   */
;;;1153   void AnimationPlayPrev(uint16 screen_id,uint16 control_id)
000000  b570              PUSH     {r4-r6,lr}
;;;1154   {
000002  4604              MOV      r4,r0
000004  460d              MOV      r5,r1
;;;1155       BEGIN_CMD();
000006  20ee              MOVS     r0,#0xee
000008  f7fffffe          BL       SendChar
;;;1156       TX_8(0xB1);
00000c  20b1              MOVS     r0,#0xb1
00000e  f7fffffe          BL       SendChar
;;;1157       TX_8(0x24);
000012  2024              MOVS     r0,#0x24
000014  f7fffffe          BL       SendChar
;;;1158       TX_16(screen_id);
000018  0a20              LSRS     r0,r4,#8
00001a  f7fffffe          BL       SendChar
00001e  b2e0              UXTB     r0,r4
000020  f7fffffe          BL       SendChar
;;;1159       TX_16(control_id);
000024  0a28              LSRS     r0,r5,#8
000026  f7fffffe          BL       SendChar
00002a  b2e8              UXTB     r0,r5
00002c  f7fffffe          BL       SendChar
;;;1160       END_CMD();
000030  20ff              MOVS     r0,#0xff
000032  f7fffffe          BL       SendChar
000036  20fc              MOVS     r0,#0xfc
000038  f7fffffe          BL       SendChar
00003c  20ff              MOVS     r0,#0xff
00003e  f7fffffe          BL       SendChar
000042  20ff              MOVS     r0,#0xff
000044  f7fffffe          BL       SendChar
;;;1161   }
000048  bd70              POP      {r4-r6,pc}
;;;1162   /*! 
                          ENDP


                          AREA ||i.AnimationStart||, CODE, READONLY, ALIGN=1

                  AnimationStart PROC
;;;1093   */
;;;1094   void AnimationStart(uint16 screen_id,uint16 control_id)
000000  b570              PUSH     {r4-r6,lr}
;;;1095   {
000002  4604              MOV      r4,r0
000004  460d              MOV      r5,r1
;;;1096       BEGIN_CMD();
000006  20ee              MOVS     r0,#0xee
000008  f7fffffe          BL       SendChar
;;;1097       TX_8(0xB1);
00000c  20b1              MOVS     r0,#0xb1
00000e  f7fffffe          BL       SendChar
;;;1098       TX_8(0x20);
000012  2020              MOVS     r0,#0x20
000014  f7fffffe          BL       SendChar
;;;1099       TX_16(screen_id);
000018  0a20              LSRS     r0,r4,#8
00001a  f7fffffe          BL       SendChar
00001e  b2e0              UXTB     r0,r4
000020  f7fffffe          BL       SendChar
;;;1100       TX_16(control_id);
000024  0a28              LSRS     r0,r5,#8
000026  f7fffffe          BL       SendChar
00002a  b2e8              UXTB     r0,r5
00002c  f7fffffe          BL       SendChar
;;;1101       END_CMD();
000030  20ff              MOVS     r0,#0xff
000032  f7fffffe          BL       SendChar
000036  20fc              MOVS     r0,#0xfc
000038  f7fffffe          BL       SendChar
00003c  20ff              MOVS     r0,#0xff
00003e  f7fffffe          BL       SendChar
000042  20ff              MOVS     r0,#0xff
000044  f7fffffe          BL       SendChar
;;;1102   }
000048  bd70              POP      {r4-r6,pc}
;;;1103   
                          ENDP


                          AREA ||i.AnimationStop||, CODE, READONLY, ALIGN=1

                  AnimationStop PROC
;;;1108   */
;;;1109   void AnimationStop(uint16 screen_id,uint16 control_id)
000000  b570              PUSH     {r4-r6,lr}
;;;1110   {
000002  4604              MOV      r4,r0
000004  460d              MOV      r5,r1
;;;1111       BEGIN_CMD();
000006  20ee              MOVS     r0,#0xee
000008  f7fffffe          BL       SendChar
;;;1112       TX_8(0xB1);
00000c  20b1              MOVS     r0,#0xb1
00000e  f7fffffe          BL       SendChar
;;;1113       TX_8(0x21);
000012  2021              MOVS     r0,#0x21
000014  f7fffffe          BL       SendChar
;;;1114       TX_16(screen_id);
000018  0a20              LSRS     r0,r4,#8
00001a  f7fffffe          BL       SendChar
00001e  b2e0              UXTB     r0,r4
000020  f7fffffe          BL       SendChar
;;;1115       TX_16(control_id);
000024  0a28              LSRS     r0,r5,#8
000026  f7fffffe          BL       SendChar
00002a  b2e8              UXTB     r0,r5
00002c  f7fffffe          BL       SendChar
;;;1116       END_CMD();
000030  20ff              MOVS     r0,#0xff
000032  f7fffffe          BL       SendChar
000036  20fc              MOVS     r0,#0xfc
000038  f7fffffe          BL       SendChar
00003c  20ff              MOVS     r0,#0xff
00003e  f7fffffe          BL       SendChar
000042  20ff              MOVS     r0,#0xff
000044  f7fffffe          BL       SendChar
;;;1117   }
000048  bd70              POP      {r4-r6,pc}
;;;1118   /*! 
                          ENDP


                          AREA ||i.BatchBegin||, CODE, READONLY, ALIGN=1

                  BatchBegin PROC
;;;1271   */
;;;1272   void BatchBegin(uint16 screen_id)
000000  b510              PUSH     {r4,lr}
;;;1273   {
000002  4604              MOV      r4,r0
;;;1274       BEGIN_CMD();
000004  20ee              MOVS     r0,#0xee
000006  f7fffffe          BL       SendChar
;;;1275       TX_8(0xB1);
00000a  20b1              MOVS     r0,#0xb1
00000c  f7fffffe          BL       SendChar
;;;1276       TX_8(0x12);
000010  2012              MOVS     r0,#0x12
000012  f7fffffe          BL       SendChar
;;;1277       TX_16(screen_id);
000016  0a20              LSRS     r0,r4,#8
000018  f7fffffe          BL       SendChar
00001c  b2e0              UXTB     r0,r4
00001e  f7fffffe          BL       SendChar
;;;1278   }
000022  bd10              POP      {r4,pc}
;;;1279   /*! 
                          ENDP


                          AREA ||i.BatchEnd||, CODE, READONLY, ALIGN=1

                  BatchEnd PROC
;;;1388   */
;;;1389   void BatchEnd()
000000  b510              PUSH     {r4,lr}
;;;1390   {
;;;1391       END_CMD();
000002  20ff              MOVS     r0,#0xff
000004  f7fffffe          BL       SendChar
000008  20fc              MOVS     r0,#0xfc
00000a  f7fffffe          BL       SendChar
00000e  20ff              MOVS     r0,#0xff
000010  f7fffffe          BL       SendChar
000014  20ff              MOVS     r0,#0xff
000016  f7fffffe          BL       SendChar
;;;1392   }
00001a  bd10              POP      {r4,pc}
;;;1393   /*! 
                          ENDP


                          AREA ||i.BatchSetButtonValue||, CODE, READONLY, ALIGN=1

                  BatchSetButtonValue PROC
;;;1283   */
;;;1284   void BatchSetButtonValue(uint16 control_id,uint8 state)
000000  b570              PUSH     {r4-r6,lr}
;;;1285   {
000002  4604              MOV      r4,r0
000004  460d              MOV      r5,r1
;;;1286       TX_16(control_id);
000006  0a20              LSRS     r0,r4,#8
000008  f7fffffe          BL       SendChar
00000c  b2e0              UXTB     r0,r4
00000e  f7fffffe          BL       SendChar
;;;1287       TX_16(1);
000012  2000              MOVS     r0,#0
000014  f7fffffe          BL       SendChar
000018  2001              MOVS     r0,#1
00001a  f7fffffe          BL       SendChar
;;;1288       TX_8(state);
00001e  b2e8              UXTB     r0,r5
000020  f7fffffe          BL       SendChar
;;;1289   }
000024  bd70              POP      {r4-r6,pc}
;;;1290   /*! 
                          ENDP


                          AREA ||i.BatchSetEnable||, CODE, READONLY, ALIGN=1

                  BatchSetEnable PROC
;;;1377   */
;;;1378   void BatchSetEnable(uint16 control_id,uint8 enable)
000000  b570              PUSH     {r4-r6,lr}
;;;1379   {
000002  4604              MOV      r4,r0
000004  460d              MOV      r5,r1
;;;1380       TX_16(control_id);
000006  0a20              LSRS     r0,r4,#8
000008  f7fffffe          BL       SendChar
00000c  b2e0              UXTB     r0,r4
00000e  f7fffffe          BL       SendChar
;;;1381       TX_8(2);
000012  2002              MOVS     r0,#2
000014  f7fffffe          BL       SendChar
;;;1382       TX_8(enable);
000018  b2e8              UXTB     r0,r5
00001a  f7fffffe          BL       SendChar
;;;1383   }
00001e  bd70              POP      {r4-r6,pc}
;;;1384   
                          ENDP


                          AREA ||i.BatchSetFrame||, CODE, READONLY, ALIGN=1

                  BatchSetFrame PROC
;;;1352   */
;;;1353   void BatchSetFrame(uint16 control_id,uint16 frame_id)
000000  b570              PUSH     {r4-r6,lr}
;;;1354   {
000002  4604              MOV      r4,r0
000004  460d              MOV      r5,r1
;;;1355       TX_16(control_id);
000006  0a20              LSRS     r0,r4,#8
000008  f7fffffe          BL       SendChar
00000c  b2e0              UXTB     r0,r4
00000e  f7fffffe          BL       SendChar
;;;1356       TX_16(2);
000012  2000              MOVS     r0,#0
000014  f7fffffe          BL       SendChar
000018  2002              MOVS     r0,#2
00001a  f7fffffe          BL       SendChar
;;;1357       TX_16(frame_id);
00001e  0a28              LSRS     r0,r5,#8
000020  f7fffffe          BL       SendChar
000024  b2e8              UXTB     r0,r5
000026  f7fffffe          BL       SendChar
;;;1358   }
00002a  bd70              POP      {r4-r6,pc}
;;;1359   
                          ENDP


                          AREA ||i.BatchSetMeterValue||, CODE, READONLY, ALIGN=1

                  BatchSetMeterValue PROC
;;;1317   */
;;;1318   void BatchSetMeterValue(uint16 control_id,uint32 value)
000000  b570              PUSH     {r4-r6,lr}
;;;1319   {
000002  4605              MOV      r5,r0
000004  460c              MOV      r4,r1
;;;1320       TX_16(control_id);
000006  0a28              LSRS     r0,r5,#8
000008  f7fffffe          BL       SendChar
00000c  b2e8              UXTB     r0,r5
00000e  f7fffffe          BL       SendChar
;;;1321       TX_16(4);
000012  2000              MOVS     r0,#0
000014  f7fffffe          BL       SendChar
000018  2004              MOVS     r0,#4
00001a  f7fffffe          BL       SendChar
;;;1322       TX_32(value);
00001e  0e20              LSRS     r0,r4,#24
000020  f7fffffe          BL       SendChar
000024  f3c44007          UBFX     r0,r4,#16,#8
000028  f7fffffe          BL       SendChar
00002c  f3c42007          UBFX     r0,r4,#8,#8
000030  f7fffffe          BL       SendChar
000034  b2e0              UXTB     r0,r4
000036  f7fffffe          BL       SendChar
;;;1323   }
00003a  bd70              POP      {r4-r6,pc}
;;;1324   /*! 
                          ENDP


                          AREA ||i.BatchSetProgressValue||, CODE, READONLY, ALIGN=1

                  BatchSetProgressValue PROC
;;;1294   */
;;;1295   void BatchSetProgressValue(uint16 control_id,uint32 value)
000000  b570              PUSH     {r4-r6,lr}
;;;1296   {
000002  4605              MOV      r5,r0
000004  460c              MOV      r4,r1
;;;1297       TX_16(control_id);
000006  0a28              LSRS     r0,r5,#8
000008  f7fffffe          BL       SendChar
00000c  b2e8              UXTB     r0,r5
00000e  f7fffffe          BL       SendChar
;;;1298       TX_16(4);
000012  2000              MOVS     r0,#0
000014  f7fffffe          BL       SendChar
000018  2004              MOVS     r0,#4
00001a  f7fffffe          BL       SendChar
;;;1299       TX_32(value);
00001e  0e20              LSRS     r0,r4,#24
000020  f7fffffe          BL       SendChar
000024  f3c44007          UBFX     r0,r4,#16,#8
000028  f7fffffe          BL       SendChar
00002c  f3c42007          UBFX     r0,r4,#8,#8
000030  f7fffffe          BL       SendChar
000034  b2e0              UXTB     r0,r4
000036  f7fffffe          BL       SendChar
;;;1300   }
00003a  bd70              POP      {r4-r6,pc}
;;;1301   
                          ENDP


                          AREA ||i.BatchSetSliderValue||, CODE, READONLY, ALIGN=1

                  BatchSetSliderValue PROC
;;;1306   */
;;;1307   void BatchSetSliderValue(uint16 control_id,uint32 value)
000000  b570              PUSH     {r4-r6,lr}
;;;1308   {
000002  4605              MOV      r5,r0
000004  460c              MOV      r4,r1
;;;1309       TX_16(control_id);
000006  0a28              LSRS     r0,r5,#8
000008  f7fffffe          BL       SendChar
00000c  b2e8              UXTB     r0,r5
00000e  f7fffffe          BL       SendChar
;;;1310       TX_16(4);
000012  2000              MOVS     r0,#0
000014  f7fffffe          BL       SendChar
000018  2004              MOVS     r0,#4
00001a  f7fffffe          BL       SendChar
;;;1311       TX_32(value);
00001e  0e20              LSRS     r0,r4,#24
000020  f7fffffe          BL       SendChar
000024  f3c44007          UBFX     r0,r4,#16,#8
000028  f7fffffe          BL       SendChar
00002c  f3c42007          UBFX     r0,r4,#8,#8
000030  f7fffffe          BL       SendChar
000034  b2e0              UXTB     r0,r4
000036  f7fffffe          BL       SendChar
;;;1312   }
00003a  bd70              POP      {r4-r6,pc}
;;;1313   /*! 
                          ENDP


                          AREA ||i.BatchSetText||, CODE, READONLY, ALIGN=1

                  BatchSetText PROC
;;;1341   */
;;;1342   void BatchSetText(uint16 control_id,uchar *strings)
000000  b570              PUSH     {r4-r6,lr}
;;;1343   {
000002  4604              MOV      r4,r0
000004  460d              MOV      r5,r1
;;;1344       TX_16(control_id);
000006  0a20              LSRS     r0,r4,#8
000008  f7fffffe          BL       SendChar
00000c  b2e0              UXTB     r0,r4
00000e  f7fffffe          BL       SendChar
;;;1345       TX_16(GetStringLen(strings));
000012  4628              MOV      r0,r5
000014  f7fffffe          BL       GetStringLen
000018  f3c02607          UBFX     r6,r0,#8,#8
00001c  4630              MOV      r0,r6
00001e  f7fffffe          BL       SendChar
000022  4628              MOV      r0,r5
000024  f7fffffe          BL       GetStringLen
000028  b2c6              UXTB     r6,r0
00002a  4630              MOV      r0,r6
00002c  f7fffffe          BL       SendChar
;;;1346       SendStrings(strings);
000030  4628              MOV      r0,r5
000032  f7fffffe          BL       SendStrings
;;;1347   }
000036  bd70              POP      {r4-r6,pc}
;;;1348   /*! 
                          ENDP


                          AREA ||i.BatchSetVisible||, CODE, READONLY, ALIGN=1

                  BatchSetVisible PROC
;;;1366   */
;;;1367   void BatchSetVisible(uint16 control_id,uint8 visible)
000000  b570              PUSH     {r4-r6,lr}
;;;1368   {
000002  4604              MOV      r4,r0
000004  460d              MOV      r5,r1
;;;1369       TX_16(control_id);
000006  0a20              LSRS     r0,r4,#8
000008  f7fffffe          BL       SendChar
00000c  b2e0              UXTB     r0,r4
00000e  f7fffffe          BL       SendChar
;;;1370       TX_8(1);
000012  2001              MOVS     r0,#1
000014  f7fffffe          BL       SendChar
;;;1371       TX_8(visible);
000018  b2e8              UXTB     r0,r5
00001a  f7fffffe          BL       SendChar
;;;1372   }
00001e  bd70              POP      {r4-r6,pc}
;;;1373   /*! 
                          ENDP


                          AREA ||i.CalibrateTouchPane||, CODE, READONLY, ALIGN=1

                  CalibrateTouchPane PROC
;;;668    */
;;;669    void CalibrateTouchPane()
000000  b510              PUSH     {r4,lr}
;;;670    {
;;;671        BEGIN_CMD();
000002  20ee              MOVS     r0,#0xee
000004  f7fffffe          BL       SendChar
;;;672        TX_8(0x72);
000008  2072              MOVS     r0,#0x72
00000a  f7fffffe          BL       SendChar
;;;673        END_CMD();
00000e  20ff              MOVS     r0,#0xff
000010  f7fffffe          BL       SendChar
000014  20fc              MOVS     r0,#0xfc
000016  f7fffffe          BL       SendChar
00001a  20ff              MOVS     r0,#0xff
00001c  f7fffffe          BL       SendChar
000020  20ff              MOVS     r0,#0xff
000022  f7fffffe          BL       SendChar
;;;674    }
000026  bd10              POP      {r4,pc}
;;;675    /*! 
                          ENDP


                          AREA ||i.ClearLayer||, CODE, READONLY, ALIGN=1

                  ClearLayer PROC
;;;773    */
;;;774    void ClearLayer(uint8 layer)
000000  b510              PUSH     {r4,lr}
;;;775    {
000002  4604              MOV      r4,r0
;;;776        BEGIN_CMD();
000004  20ee              MOVS     r0,#0xee
000006  f7fffffe          BL       SendChar
;;;777        TX_8(0x05);
00000a  2005              MOVS     r0,#5
00000c  f7fffffe          BL       SendChar
;;;778        TX_8(layer);
000010  b2e0              UXTB     r0,r4
000012  f7fffffe          BL       SendChar
;;;779        END_CMD();
000016  20ff              MOVS     r0,#0xff
000018  f7fffffe          BL       SendChar
00001c  20fc              MOVS     r0,#0xfc
00001e  f7fffffe          BL       SendChar
000022  20ff              MOVS     r0,#0xff
000024  f7fffffe          BL       SendChar
000028  20ff              MOVS     r0,#0xff
00002a  f7fffffe          BL       SendChar
;;;780    }
00002e  bd10              POP      {r4,pc}
;;;781    
                          ENDP


                          AREA ||i.ColorPicker||, CODE, READONLY, ALIGN=1

                  ColorPicker PROC
;;;179    */
;;;180    void ColorPicker(uint8 mode, uint16 x,uint16 y)
000000  b570              PUSH     {r4-r6,lr}
;;;181    {
000002  4606              MOV      r6,r0
000004  460c              MOV      r4,r1
000006  4615              MOV      r5,r2
;;;182        BEGIN_CMD();
000008  20ee              MOVS     r0,#0xee
00000a  f7fffffe          BL       SendChar
;;;183        TX_8(0xA3);
00000e  20a3              MOVS     r0,#0xa3
000010  f7fffffe          BL       SendChar
;;;184        TX_8(mode);
000014  b2f0              UXTB     r0,r6
000016  f7fffffe          BL       SendChar
;;;185        TX_16(x);
00001a  0a20              LSRS     r0,r4,#8
00001c  f7fffffe          BL       SendChar
000020  b2e0              UXTB     r0,r4
000022  f7fffffe          BL       SendChar
;;;186        TX_16(y);
000026  0a28              LSRS     r0,r5,#8
000028  f7fffffe          BL       SendChar
00002c  b2e8              UXTB     r0,r5
00002e  f7fffffe          BL       SendChar
;;;187        END_CMD();
000032  20ff              MOVS     r0,#0xff
000034  f7fffffe          BL       SendChar
000038  20fc              MOVS     r0,#0xfc
00003a  f7fffffe          BL       SendChar
00003e  20ff              MOVS     r0,#0xff
000040  f7fffffe          BL       SendChar
000044  20ff              MOVS     r0,#0xff
000046  f7fffffe          BL       SendChar
;;;188    }
00004a  bd70              POP      {r4-r6,pc}
;;;189    /*! 
                          ENDP


                          AREA ||i.CopyLayer||, CODE, READONLY, ALIGN=1

                  CopyLayer PROC
;;;761    */
;;;762    void CopyLayer(uint8 src_layer,uint8 dest_layer)
000000  b570              PUSH     {r4-r6,lr}
;;;763    {
000002  4604              MOV      r4,r0
000004  460d              MOV      r5,r1
;;;764        BEGIN_CMD();
000006  20ee              MOVS     r0,#0xee
000008  f7fffffe          BL       SendChar
;;;765        TX_8(0xA4);
00000c  20a4              MOVS     r0,#0xa4
00000e  f7fffffe          BL       SendChar
;;;766        TX_8(src_layer);
000012  b2e0              UXTB     r0,r4
000014  f7fffffe          BL       SendChar
;;;767        TX_8(dest_layer);
000018  b2e8              UXTB     r0,r5
00001a  f7fffffe          BL       SendChar
;;;768        END_CMD();
00001e  20ff              MOVS     r0,#0xff
000020  f7fffffe          BL       SendChar
000024  20fc              MOVS     r0,#0xfc
000026  f7fffffe          BL       SendChar
00002a  20ff              MOVS     r0,#0xff
00002c  f7fffffe          BL       SendChar
000030  20ff              MOVS     r0,#0xff
000032  f7fffffe          BL       SendChar
;;;769    }
000036  bd70              POP      {r4-r6,pc}
;;;770    /*! 
                          ENDP


                          AREA ||i.DelayMS||, CODE, READONLY, ALIGN=1

                  DelayMS PROC
;;;101    */
;;;102    void DelayMS(unsigned int n) 
000000  4601              MOV      r1,r0
;;;103    {
;;;104        int i,j;  
;;;105        for(i = n;i>0;i--)
000002  e006              B        |L21.18|
                  |L21.4|
;;;106            for(j=1000;j>0;j--) ; 
000004  f44f727a          MOV      r2,#0x3e8
000008  e000              B        |L21.12|
                  |L21.10|
00000a  1e52              SUBS     r2,r2,#1
                  |L21.12|
00000c  2a00              CMP      r2,#0
00000e  dcfc              BGT      |L21.10|
000010  1e49              SUBS     r1,r1,#1              ;105
                  |L21.18|
000012  2900              CMP      r1,#0                 ;105
000014  dcf6              BGT      |L21.4|
;;;107    }
000016  4770              BX       lr
;;;108    /*! 
                          ENDP


                          AREA ||i.DisArea_Image||, CODE, READONLY, ALIGN=1

                  DisArea_Image PROC
;;;297    */
;;;298    void DisArea_Image(uint16 x,uint16 y,uint16 image_id,uint8 masken)
000000  e92d41f0          PUSH     {r4-r8,lr}
;;;299    {
000004  4604              MOV      r4,r0
000006  460d              MOV      r5,r1
000008  4616              MOV      r6,r2
00000a  461f              MOV      r7,r3
;;;300        BEGIN_CMD();
00000c  20ee              MOVS     r0,#0xee
00000e  f7fffffe          BL       SendChar
;;;301        TX_8(0x32);
000012  2032              MOVS     r0,#0x32
000014  f7fffffe          BL       SendChar
;;;302        TX_16(x);
000018  0a20              LSRS     r0,r4,#8
00001a  f7fffffe          BL       SendChar
00001e  b2e0              UXTB     r0,r4
000020  f7fffffe          BL       SendChar
;;;303        TX_16(y);
000024  0a28              LSRS     r0,r5,#8
000026  f7fffffe          BL       SendChar
00002a  b2e8              UXTB     r0,r5
00002c  f7fffffe          BL       SendChar
;;;304        TX_16(image_id);
000030  0a30              LSRS     r0,r6,#8
000032  f7fffffe          BL       SendChar
000036  b2f0              UXTB     r0,r6
000038  f7fffffe          BL       SendChar
;;;305        TX_8(masken);
00003c  b2f8              UXTB     r0,r7
00003e  f7fffffe          BL       SendChar
;;;306        END_CMD();
000042  20ff              MOVS     r0,#0xff
000044  f7fffffe          BL       SendChar
000048  20fc              MOVS     r0,#0xfc
00004a  f7fffffe          BL       SendChar
00004e  20ff              MOVS     r0,#0xff
000050  f7fffffe          BL       SendChar
000054  20ff              MOVS     r0,#0xff
000056  f7fffffe          BL       SendChar
;;;307    }
00005a  e8bd81f0          POP      {r4-r8,pc}
;;;308    /*! 
                          ENDP


                          AREA ||i.DisCursor||, CODE, READONLY, ALIGN=1

                  DisCursor PROC
;;;266    */
;;;267    void DisCursor(uint8 enable,uint16 x, uint16 y,uint8 width,uint8 height )
000000  e92d41f0          PUSH     {r4-r8,lr}
;;;268    {
000004  4606              MOV      r6,r0
000006  460c              MOV      r4,r1
000008  4615              MOV      r5,r2
00000a  461f              MOV      r7,r3
00000c  f8dd8018          LDR      r8,[sp,#0x18]
;;;269        BEGIN_CMD();
000010  20ee              MOVS     r0,#0xee
000012  f7fffffe          BL       SendChar
;;;270        TX_8(0x21);
000016  2021              MOVS     r0,#0x21
000018  f7fffffe          BL       SendChar
;;;271        TX_8(enable);
00001c  b2f0              UXTB     r0,r6
00001e  f7fffffe          BL       SendChar
;;;272        TX_16(x);
000022  0a20              LSRS     r0,r4,#8
000024  f7fffffe          BL       SendChar
000028  b2e0              UXTB     r0,r4
00002a  f7fffffe          BL       SendChar
;;;273        TX_16(y);
00002e  0a28              LSRS     r0,r5,#8
000030  f7fffffe          BL       SendChar
000034  b2e8              UXTB     r0,r5
000036  f7fffffe          BL       SendChar
;;;274        TX_8(width);
00003a  b2f8              UXTB     r0,r7
00003c  f7fffffe          BL       SendChar
;;;275        TX_8(height);
000040  f00800ff          AND      r0,r8,#0xff
000044  f7fffffe          BL       SendChar
;;;276        END_CMD();
000048  20ff              MOVS     r0,#0xff
00004a  f7fffffe          BL       SendChar
00004e  20fc              MOVS     r0,#0xfc
000050  f7fffffe          BL       SendChar
000054  20ff              MOVS     r0,#0xff
000056  f7fffffe          BL       SendChar
00005a  20ff              MOVS     r0,#0xff
00005c  f7fffffe          BL       SendChar
;;;277    }
000060  e8bd81f0          POP      {r4-r8,pc}
;;;278    /*! 
                          ENDP


                          AREA ||i.DisCut_Image||, CODE, READONLY, ALIGN=1

                  DisCut_Image PROC
;;;318    */
;;;319    void DisCut_Image(uint16 x,uint16 y,uint16 image_id,uint16 image_x,uint16 image_y,uint16 image_l, uint16 image_w,uint8 masken)
000000  e92d5ff0          PUSH     {r4-r12,lr}
;;;320    {
000004  4604              MOV      r4,r0
000006  460d              MOV      r5,r1
000008  4616              MOV      r6,r2
00000a  461f              MOV      r7,r3
00000c  e9ddab0c          LDRD     r10,r11,[sp,#0x30]
000010  e9dd890a          LDRD     r8,r9,[sp,#0x28]
;;;321        BEGIN_CMD();
000014  20ee              MOVS     r0,#0xee
000016  f7fffffe          BL       SendChar
;;;322        TX_8(0x33);
00001a  2033              MOVS     r0,#0x33
00001c  f7fffffe          BL       SendChar
;;;323        TX_16(x);
000020  0a20              LSRS     r0,r4,#8
000022  f7fffffe          BL       SendChar
000026  b2e0              UXTB     r0,r4
000028  f7fffffe          BL       SendChar
;;;324        TX_16(y);
00002c  0a28              LSRS     r0,r5,#8
00002e  f7fffffe          BL       SendChar
000032  b2e8              UXTB     r0,r5
000034  f7fffffe          BL       SendChar
;;;325        TX_16(image_id);
000038  0a30              LSRS     r0,r6,#8
00003a  f7fffffe          BL       SendChar
00003e  b2f0              UXTB     r0,r6
000040  f7fffffe          BL       SendChar
;;;326        TX_16(image_x);
000044  0a38              LSRS     r0,r7,#8
000046  f7fffffe          BL       SendChar
00004a  b2f8              UXTB     r0,r7
00004c  f7fffffe          BL       SendChar
;;;327        TX_16(image_y);
000050  ea4f2018          LSR      r0,r8,#8
000054  f7fffffe          BL       SendChar
000058  f00800ff          AND      r0,r8,#0xff
00005c  f7fffffe          BL       SendChar
;;;328        TX_16(image_l);
000060  ea4f2019          LSR      r0,r9,#8
000064  f7fffffe          BL       SendChar
000068  f00900ff          AND      r0,r9,#0xff
00006c  f7fffffe          BL       SendChar
;;;329        TX_16(image_w);
000070  ea4f201a          LSR      r0,r10,#8
000074  f7fffffe          BL       SendChar
000078  f00a00ff          AND      r0,r10,#0xff
00007c  f7fffffe          BL       SendChar
;;;330        TX_8(masken);
000080  f00b00ff          AND      r0,r11,#0xff
000084  f7fffffe          BL       SendChar
;;;331        END_CMD();
000088  20ff              MOVS     r0,#0xff
00008a  f7fffffe          BL       SendChar
00008e  20fc              MOVS     r0,#0xfc
000090  f7fffffe          BL       SendChar
000094  20ff              MOVS     r0,#0xff
000096  f7fffffe          BL       SendChar
00009a  20ff              MOVS     r0,#0xff
00009c  f7fffffe          BL       SendChar
;;;332    }
0000a0  e8bd9ff0          POP      {r4-r12,pc}
;;;333    /*! 
                          ENDP


                          AREA ||i.DisFlashImage||, CODE, READONLY, ALIGN=1

                  DisFlashImage PROC
;;;340    */
;;;341    void DisFlashImage(uint16 x,uint16 y,uint16 flashimage_id,uint8 enable,uint8 playnum)
000000  e92d41f0          PUSH     {r4-r8,lr}
;;;342    {
000004  4604              MOV      r4,r0
000006  460d              MOV      r5,r1
000008  4616              MOV      r6,r2
00000a  461f              MOV      r7,r3
00000c  f8dd8018          LDR      r8,[sp,#0x18]
;;;343        BEGIN_CMD();
000010  20ee              MOVS     r0,#0xee
000012  f7fffffe          BL       SendChar
;;;344        TX_8(0x80);
000016  2080              MOVS     r0,#0x80
000018  f7fffffe          BL       SendChar
;;;345        TX_16(x);
00001c  0a20              LSRS     r0,r4,#8
00001e  f7fffffe          BL       SendChar
000022  b2e0              UXTB     r0,r4
000024  f7fffffe          BL       SendChar
;;;346        TX_16(y);
000028  0a28              LSRS     r0,r5,#8
00002a  f7fffffe          BL       SendChar
00002e  b2e8              UXTB     r0,r5
000030  f7fffffe          BL       SendChar
;;;347        TX_16(flashimage_id);
000034  0a30              LSRS     r0,r6,#8
000036  f7fffffe          BL       SendChar
00003a  b2f0              UXTB     r0,r6
00003c  f7fffffe          BL       SendChar
;;;348        TX_8(enable);
000040  b2f8              UXTB     r0,r7
000042  f7fffffe          BL       SendChar
;;;349        TX_8(playnum);
000046  f00800ff          AND      r0,r8,#0xff
00004a  f7fffffe          BL       SendChar
;;;350        END_CMD();
00004e  20ff              MOVS     r0,#0xff
000050  f7fffffe          BL       SendChar
000054  20fc              MOVS     r0,#0xfc
000056  f7fffffe          BL       SendChar
00005a  20ff              MOVS     r0,#0xff
00005c  f7fffffe          BL       SendChar
000060  20ff              MOVS     r0,#0xff
000062  f7fffffe          BL       SendChar
;;;351    }
000066  e8bd81f0          POP      {r4-r8,pc}
;;;352    /*! 
                          ENDP


                          AREA ||i.DisFull_Image||, CODE, READONLY, ALIGN=1

                  DisFull_Image PROC
;;;282    */
;;;283    void DisFull_Image(uint16 image_id,uint8 masken)
000000  b570              PUSH     {r4-r6,lr}
;;;284    {
000002  4604              MOV      r4,r0
000004  460d              MOV      r5,r1
;;;285        BEGIN_CMD();
000006  20ee              MOVS     r0,#0xee
000008  f7fffffe          BL       SendChar
;;;286        TX_8(0x31);
00000c  2031              MOVS     r0,#0x31
00000e  f7fffffe          BL       SendChar
;;;287        TX_16(image_id);
000012  0a20              LSRS     r0,r4,#8
000014  f7fffffe          BL       SendChar
000018  b2e0              UXTB     r0,r4
00001a  f7fffffe          BL       SendChar
;;;288        TX_8(masken);
00001e  b2e8              UXTB     r0,r5
000020  f7fffffe          BL       SendChar
;;;289        END_CMD();
000024  20ff              MOVS     r0,#0xff
000026  f7fffffe          BL       SendChar
00002a  20fc              MOVS     r0,#0xfc
00002c  f7fffffe          BL       SendChar
000030  20ff              MOVS     r0,#0xff
000032  f7fffffe          BL       SendChar
000036  20ff              MOVS     r0,#0xff
000038  f7fffffe          BL       SendChar
;;;290    }
00003c  bd70              POP      {r4-r6,pc}
;;;291    /*! 
                          ENDP


                          AREA ||i.DisText||, CODE, READONLY, ALIGN=1

                  DisText PROC
;;;247    */
;;;248    void DisText(uint16 x, uint16 y,uint8 back,uint8 font,uchar *strings )
000000  e92d41f0          PUSH     {r4-r8,lr}
;;;249    {
000004  4604              MOV      r4,r0
000006  460d              MOV      r5,r1
000008  4616              MOV      r6,r2
00000a  461f              MOV      r7,r3
00000c  f8dd8018          LDR      r8,[sp,#0x18]
;;;250        BEGIN_CMD();
000010  20ee              MOVS     r0,#0xee
000012  f7fffffe          BL       SendChar
;;;251        TX_8(0x20);
000016  2020              MOVS     r0,#0x20
000018  f7fffffe          BL       SendChar
;;;252        TX_16(x);
00001c  0a20              LSRS     r0,r4,#8
00001e  f7fffffe          BL       SendChar
000022  b2e0              UXTB     r0,r4
000024  f7fffffe          BL       SendChar
;;;253        TX_16(y);
000028  0a28              LSRS     r0,r5,#8
00002a  f7fffffe          BL       SendChar
00002e  b2e8              UXTB     r0,r5
000030  f7fffffe          BL       SendChar
;;;254        TX_8(back);
000034  b2f0              UXTB     r0,r6
000036  f7fffffe          BL       SendChar
;;;255        TX_8(font);
00003a  b2f8              UXTB     r0,r7
00003c  f7fffffe          BL       SendChar
;;;256        SendStrings(strings);
000040  4640              MOV      r0,r8
000042  f7fffffe          BL       SendStrings
;;;257        END_CMD();
000046  20ff              MOVS     r0,#0xff
000048  f7fffffe          BL       SendChar
00004c  20fc              MOVS     r0,#0xfc
00004e  f7fffffe          BL       SendChar
000052  20ff              MOVS     r0,#0xff
000054  f7fffffe          BL       SendChar
000058  20ff              MOVS     r0,#0xff
00005a  f7fffffe          BL       SendChar
;;;258    }
00005e  e8bd81f0          POP      {r4-r8,pc}
;;;259    /*! 
                          ENDP


                          AREA ||i.DisplyLayer||, CODE, READONLY, ALIGN=1

                  DisplyLayer PROC
;;;749    */
;;;750    void DisplyLayer(uint8 layer)
000000  b510              PUSH     {r4,lr}
;;;751    {
000002  4604              MOV      r4,r0
;;;752        BEGIN_CMD();
000004  20ee              MOVS     r0,#0xee
000006  f7fffffe          BL       SendChar
;;;753        TX_8(0xA2);
00000a  20a2              MOVS     r0,#0xa2
00000c  f7fffffe          BL       SendChar
;;;754        TX_8(layer);
000010  b2e0              UXTB     r0,r4
000012  f7fffffe          BL       SendChar
;;;755        END_CMD();
000016  20ff              MOVS     r0,#0xff
000018  f7fffffe          BL       SendChar
00001c  20fc              MOVS     r0,#0xfc
00001e  f7fffffe          BL       SendChar
000022  20ff              MOVS     r0,#0xff
000024  f7fffffe          BL       SendChar
000028  20ff              MOVS     r0,#0xff
00002a  f7fffffe          BL       SendChar
;;;756    }
00002e  bd10              POP      {r4,pc}
;;;757    /*! 
                          ENDP


                          AREA ||i.FlashBeginSaveControl||, CODE, READONLY, ALIGN=1

                  FlashBeginSaveControl PROC
;;;1550   */
;;;1551   void FlashBeginSaveControl(uint32 version,uint32 address)
000000  b570              PUSH     {r4-r6,lr}
;;;1552   {
000002  4604              MOV      r4,r0
000004  460d              MOV      r5,r1
;;;1553       BEGIN_CMD();
000006  20ee              MOVS     r0,#0xee
000008  f7fffffe          BL       SendChar
;;;1554       TX_8(0xB1);
00000c  20b1              MOVS     r0,#0xb1
00000e  f7fffffe          BL       SendChar
;;;1555       TX_8(0xAA);
000012  20aa              MOVS     r0,#0xaa
000014  f7fffffe          BL       SendChar
;;;1556       TX_32(version);
000018  0e20              LSRS     r0,r4,#24
00001a  f7fffffe          BL       SendChar
00001e  f3c44007          UBFX     r0,r4,#16,#8
000022  f7fffffe          BL       SendChar
000026  f3c42007          UBFX     r0,r4,#8,#8
00002a  f7fffffe          BL       SendChar
00002e  b2e0              UXTB     r0,r4
000030  f7fffffe          BL       SendChar
;;;1557       TX_32(address);
000034  0e28              LSRS     r0,r5,#24
000036  f7fffffe          BL       SendChar
00003a  f3c54007          UBFX     r0,r5,#16,#8
00003e  f7fffffe          BL       SendChar
000042  f3c52007          UBFX     r0,r5,#8,#8
000046  f7fffffe          BL       SendChar
00004a  b2e8              UXTB     r0,r5
00004c  f7fffffe          BL       SendChar
;;;1558   }
000050  bd70              POP      {r4-r6,pc}
;;;1559   
                          ENDP


                          AREA ||i.FlashEndSaveControl||, CODE, READONLY, ALIGN=1

                  FlashEndSaveControl PROC
;;;1574   */
;;;1575   void FlashEndSaveControl()
000000  b510              PUSH     {r4,lr}
;;;1576   {
;;;1577       END_CMD();
000002  20ff              MOVS     r0,#0xff
000004  f7fffffe          BL       SendChar
000008  20fc              MOVS     r0,#0xfc
00000a  f7fffffe          BL       SendChar
00000e  20ff              MOVS     r0,#0xff
000010  f7fffffe          BL       SendChar
000014  20ff              MOVS     r0,#0xff
000016  f7fffffe          BL       SendChar
;;;1578   }
00001a  bd10              POP      {r4,pc}
;;;1579   /*! 
                          ENDP


                          AREA ||i.FlashRestoreControl||, CODE, READONLY, ALIGN=1

                  FlashRestoreControl PROC
;;;1583   */
;;;1584   void FlashRestoreControl(uint32 version,uint32 address)
000000  b570              PUSH     {r4-r6,lr}
;;;1585   {
000002  4604              MOV      r4,r0
000004  460d              MOV      r5,r1
;;;1586       BEGIN_CMD();
000006  20ee              MOVS     r0,#0xee
000008  f7fffffe          BL       SendChar
;;;1587       TX_8(0xB1);
00000c  20b1              MOVS     r0,#0xb1
00000e  f7fffffe          BL       SendChar
;;;1588       TX_8(0xAB);
000012  20ab              MOVS     r0,#0xab
000014  f7fffffe          BL       SendChar
;;;1589       TX_32(version);
000018  0e20              LSRS     r0,r4,#24
00001a  f7fffffe          BL       SendChar
00001e  f3c44007          UBFX     r0,r4,#16,#8
000022  f7fffffe          BL       SendChar
000026  f3c42007          UBFX     r0,r4,#8,#8
00002a  f7fffffe          BL       SendChar
00002e  b2e0              UXTB     r0,r4
000030  f7fffffe          BL       SendChar
;;;1590       TX_32(address);
000034  0e28              LSRS     r0,r5,#24
000036  f7fffffe          BL       SendChar
00003a  f3c54007          UBFX     r0,r5,#16,#8
00003e  f7fffffe          BL       SendChar
000042  f3c52007          UBFX     r0,r5,#8,#8
000046  f7fffffe          BL       SendChar
00004a  b2e8              UXTB     r0,r5
00004c  f7fffffe          BL       SendChar
;;;1591       END_CMD();
000050  20ff              MOVS     r0,#0xff
000052  f7fffffe          BL       SendChar
000056  20fc              MOVS     r0,#0xfc
000058  f7fffffe          BL       SendChar
00005c  20ff              MOVS     r0,#0xff
00005e  f7fffffe          BL       SendChar
000062  20ff              MOVS     r0,#0xff
000064  f7fffffe          BL       SendChar
;;;1592   }
000068  bd70              POP      {r4-r6,pc}
;;;1593   
                          ENDP


                          AREA ||i.FlashSaveControl||, CODE, READONLY, ALIGN=1

                  FlashSaveControl PROC
;;;1564   */
;;;1565   void FlashSaveControl(uint16 screen_id,uint16 control_id)
000000  b570              PUSH     {r4-r6,lr}
;;;1566   {
000002  4604              MOV      r4,r0
000004  460d              MOV      r5,r1
;;;1567       TX_16(screen_id);
000006  0a20              LSRS     r0,r4,#8
000008  f7fffffe          BL       SendChar
00000c  b2e0              UXTB     r0,r4
00000e  f7fffffe          BL       SendChar
;;;1568       TX_16(control_id);
000012  0a28              LSRS     r0,r5,#8
000014  f7fffffe          BL       SendChar
000018  b2e8              UXTB     r0,r5
00001a  f7fffffe          BL       SendChar
;;;1569   }
00001e  bd70              POP      {r4-r6,pc}
;;;1570   /*! 
                          ENDP


                          AREA ||i.GUI_Arc||, CODE, READONLY, ALIGN=1

                  GUI_Arc PROC
;;;524    */
;;;525    void GUI_Arc(uint16 x,uint16 y, uint16 r,uint16 sa, uint16 ea)
000000  e92d41f0          PUSH     {r4-r8,lr}
;;;526    {
000004  4604              MOV      r4,r0
000006  460d              MOV      r5,r1
000008  4616              MOV      r6,r2
00000a  461f              MOV      r7,r3
00000c  f8dd8018          LDR      r8,[sp,#0x18]
;;;527        BEGIN_CMD();
000010  20ee              MOVS     r0,#0xee
000012  f7fffffe          BL       SendChar
;;;528        TX_8(0x67);
000016  2067              MOVS     r0,#0x67
000018  f7fffffe          BL       SendChar
;;;529        TX_16(x);
00001c  0a20              LSRS     r0,r4,#8
00001e  f7fffffe          BL       SendChar
000022  b2e0              UXTB     r0,r4
000024  f7fffffe          BL       SendChar
;;;530        TX_16(y);
000028  0a28              LSRS     r0,r5,#8
00002a  f7fffffe          BL       SendChar
00002e  b2e8              UXTB     r0,r5
000030  f7fffffe          BL       SendChar
;;;531        TX_16(r);
000034  0a30              LSRS     r0,r6,#8
000036  f7fffffe          BL       SendChar
00003a  b2f0              UXTB     r0,r6
00003c  f7fffffe          BL       SendChar
;;;532        TX_16(sa);
000040  0a38              LSRS     r0,r7,#8
000042  f7fffffe          BL       SendChar
000046  b2f8              UXTB     r0,r7
000048  f7fffffe          BL       SendChar
;;;533        TX_16(ea);
00004c  ea4f2018          LSR      r0,r8,#8
000050  f7fffffe          BL       SendChar
000054  f00800ff          AND      r0,r8,#0xff
000058  f7fffffe          BL       SendChar
;;;534        END_CMD();
00005c  20ff              MOVS     r0,#0xff
00005e  f7fffffe          BL       SendChar
000062  20fc              MOVS     r0,#0xfc
000064  f7fffffe          BL       SendChar
000068  20ff              MOVS     r0,#0xff
00006a  f7fffffe          BL       SendChar
00006e  20ff              MOVS     r0,#0xff
000070  f7fffffe          BL       SendChar
;;;535    }
000074  e8bd81f0          POP      {r4-r8,pc}
;;;536    /*! 
                          ENDP


                          AREA ||i.GUI_AreaInycolor||, CODE, READONLY, ALIGN=1

                  GUI_AreaInycolor PROC
;;;630    
;;;631    void GUI_AreaInycolor(uint16 x0, uint16 y0, uint16 x1,uint16 y1 )
000000  e92d41f0          PUSH     {r4-r8,lr}
;;;632    {
000004  4604              MOV      r4,r0
000006  460d              MOV      r5,r1
000008  4616              MOV      r6,r2
00000a  461f              MOV      r7,r3
;;;633        BEGIN_CMD();
00000c  20ee              MOVS     r0,#0xee
00000e  f7fffffe          BL       SendChar
;;;634        TX_8(0x65);
000012  2065              MOVS     r0,#0x65
000014  f7fffffe          BL       SendChar
;;;635        TX_16(x0);
000018  0a20              LSRS     r0,r4,#8
00001a  f7fffffe          BL       SendChar
00001e  b2e0              UXTB     r0,r4
000020  f7fffffe          BL       SendChar
;;;636        TX_16(y0);
000024  0a28              LSRS     r0,r5,#8
000026  f7fffffe          BL       SendChar
00002a  b2e8              UXTB     r0,r5
00002c  f7fffffe          BL       SendChar
;;;637        TX_16(x1);
000030  0a30              LSRS     r0,r6,#8
000032  f7fffffe          BL       SendChar
000036  b2f0              UXTB     r0,r6
000038  f7fffffe          BL       SendChar
;;;638        TX_16(y1);
00003c  0a38              LSRS     r0,r7,#8
00003e  f7fffffe          BL       SendChar
000042  b2f8              UXTB     r0,r7
000044  f7fffffe          BL       SendChar
;;;639        END_CMD();
000048  20ff              MOVS     r0,#0xff
00004a  f7fffffe          BL       SendChar
00004e  20fc              MOVS     r0,#0xfc
000050  f7fffffe          BL       SendChar
000054  20ff              MOVS     r0,#0xff
000056  f7fffffe          BL       SendChar
00005a  20ff              MOVS     r0,#0xff
00005c  f7fffffe          BL       SendChar
;;;640    }
000060  e8bd81f0          POP      {r4-r8,pc}
;;;641    /*! 
                          ENDP


                          AREA ||i.GUI_BcolorConDots||, CODE, READONLY, ALIGN=1

                  GUI_BcolorConDots PROC
;;;479    */
;;;480    void GUI_BcolorConDots(uint16 *dot,uint16 dot_cnt)
000000  b570              PUSH     {r4-r6,lr}
;;;481    {
000002  4605              MOV      r5,r0
000004  460c              MOV      r4,r1
;;;482        BEGIN_CMD();
000006  20ee              MOVS     r0,#0xee
000008  f7fffffe          BL       SendChar
;;;483        TX_8(0x69);
00000c  2069              MOVS     r0,#0x69
00000e  f7fffffe          BL       SendChar
;;;484        TX_16N(dot,dot_cnt*2);
000012  f64f70ff          MOV      r0,#0xffff
000016  ea000144          AND      r1,r0,r4,LSL #1
00001a  4628              MOV      r0,r5
00001c  f7fffffe          BL       SendNU16
;;;485        END_CMD();
000020  20ff              MOVS     r0,#0xff
000022  f7fffffe          BL       SendChar
000026  20fc              MOVS     r0,#0xfc
000028  f7fffffe          BL       SendChar
00002c  20ff              MOVS     r0,#0xff
00002e  f7fffffe          BL       SendChar
000032  20ff              MOVS     r0,#0xff
000034  f7fffffe          BL       SendChar
;;;486    }
000038  bd70              POP      {r4-r6,pc}
;;;487    /*! 
                          ENDP


                          AREA ||i.GUI_BcolorConOffsetDots||, CODE, READONLY, ALIGN=1

                  GUI_BcolorConOffsetDots PROC
;;;436    */
;;;437    void GUI_BcolorConOffsetDots(uint16 x,uint16 y,uint8 *dot_offset,uint16 dot_cnt)
000000  e92d41f0          PUSH     {r4-r8,lr}
;;;438    {
000004  4604              MOV      r4,r0
000006  460d              MOV      r5,r1
000008  4616              MOV      r6,r2
00000a  461f              MOV      r7,r3
;;;439        BEGIN_CMD();
00000c  20ee              MOVS     r0,#0xee
00000e  f7fffffe          BL       SendChar
;;;440        TX_8(0x76);
000012  2076              MOVS     r0,#0x76
000014  f7fffffe          BL       SendChar
;;;441        TX_16(x);
000018  0a20              LSRS     r0,r4,#8
00001a  f7fffffe          BL       SendChar
00001e  b2e0              UXTB     r0,r4
000020  f7fffffe          BL       SendChar
;;;442        TX_16(y);
000024  0a28              LSRS     r0,r5,#8
000026  f7fffffe          BL       SendChar
00002a  b2e8              UXTB     r0,r5
00002c  f7fffffe          BL       SendChar
;;;443        TX_16N(dot_offset,dot_cnt);
000030  4639              MOV      r1,r7
000032  4630              MOV      r0,r6
000034  f7fffffe          BL       SendNU16
;;;444        END_CMD();
000038  20ff              MOVS     r0,#0xff
00003a  f7fffffe          BL       SendChar
00003e  20fc              MOVS     r0,#0xfc
000040  f7fffffe          BL       SendChar
000044  20ff              MOVS     r0,#0xff
000046  f7fffffe          BL       SendChar
00004a  20ff              MOVS     r0,#0xff
00004c  f7fffffe          BL       SendChar
;;;445    }
000050  e8bd81f0          POP      {r4-r8,pc}
;;;446    /*! 
                          ENDP


                          AREA ||i.GUI_Circle||, CODE, READONLY, ALIGN=1

                  GUI_Circle PROC
;;;492    */
;;;493    void GUI_Circle(uint16 x, uint16 y, uint16 r)
000000  b570              PUSH     {r4-r6,lr}
;;;494    {
000002  4604              MOV      r4,r0
000004  460d              MOV      r5,r1
000006  4616              MOV      r6,r2
;;;495        BEGIN_CMD();
000008  20ee              MOVS     r0,#0xee
00000a  f7fffffe          BL       SendChar
;;;496        TX_8(0x52);
00000e  2052              MOVS     r0,#0x52
000010  f7fffffe          BL       SendChar
;;;497        TX_16(x);
000014  0a20              LSRS     r0,r4,#8
000016  f7fffffe          BL       SendChar
00001a  b2e0              UXTB     r0,r4
00001c  f7fffffe          BL       SendChar
;;;498        TX_16(y);
000020  0a28              LSRS     r0,r5,#8
000022  f7fffffe          BL       SendChar
000026  b2e8              UXTB     r0,r5
000028  f7fffffe          BL       SendChar
;;;499        TX_16(r);
00002c  0a30              LSRS     r0,r6,#8
00002e  f7fffffe          BL       SendChar
000032  b2f0              UXTB     r0,r6
000034  f7fffffe          BL       SendChar
;;;500        END_CMD();
000038  20ff              MOVS     r0,#0xff
00003a  f7fffffe          BL       SendChar
00003e  20fc              MOVS     r0,#0xfc
000040  f7fffffe          BL       SendChar
000044  20ff              MOVS     r0,#0xff
000046  f7fffffe          BL       SendChar
00004a  20ff              MOVS     r0,#0xff
00004c  f7fffffe          BL       SendChar
;;;501    }
000050  bd70              POP      {r4-r6,pc}
;;;502    /*! 
                          ENDP


                          AREA ||i.GUI_CircleFill||, CODE, READONLY, ALIGN=1

                  GUI_CircleFill PROC
;;;507    */
;;;508    void GUI_CircleFill(uint16 x, uint16 y, uint16 r)
000000  b570              PUSH     {r4-r6,lr}
;;;509    {
000002  4604              MOV      r4,r0
000004  460d              MOV      r5,r1
000006  4616              MOV      r6,r2
;;;510        BEGIN_CMD();
000008  20ee              MOVS     r0,#0xee
00000a  f7fffffe          BL       SendChar
;;;511        TX_8(0x53);
00000e  2053              MOVS     r0,#0x53
000010  f7fffffe          BL       SendChar
;;;512        TX_16(x);
000014  0a20              LSRS     r0,r4,#8
000016  f7fffffe          BL       SendChar
00001a  b2e0              UXTB     r0,r4
00001c  f7fffffe          BL       SendChar
;;;513        TX_16(y);
000020  0a28              LSRS     r0,r5,#8
000022  f7fffffe          BL       SendChar
000026  b2e8              UXTB     r0,r5
000028  f7fffffe          BL       SendChar
;;;514        TX_16(r);
00002c  0a30              LSRS     r0,r6,#8
00002e  f7fffffe          BL       SendChar
000032  b2f0              UXTB     r0,r6
000034  f7fffffe          BL       SendChar
;;;515        END_CMD();
000038  20ff              MOVS     r0,#0xff
00003a  f7fffffe          BL       SendChar
00003e  20fc              MOVS     r0,#0xfc
000040  f7fffffe          BL       SendChar
000044  20ff              MOVS     r0,#0xff
000046  f7fffffe          BL       SendChar
00004a  20ff              MOVS     r0,#0xff
00004c  f7fffffe          BL       SendChar
;;;516    }
000050  bd70              POP      {r4-r6,pc}
;;;517    /*! 
                          ENDP


                          AREA ||i.GUI_CleanScreen||, CODE, READONLY, ALIGN=1

                  GUI_CleanScreen PROC
;;;191    */
;;;192    void GUI_CleanScreen()
000000  b510              PUSH     {r4,lr}
;;;193    {
;;;194        BEGIN_CMD();
000002  20ee              MOVS     r0,#0xee
000004  f7fffffe          BL       SendChar
;;;195        TX_8(0x01);
000008  2001              MOVS     r0,#1
00000a  f7fffffe          BL       SendChar
;;;196        END_CMD();
00000e  20ff              MOVS     r0,#0xff
000010  f7fffffe          BL       SendChar
000014  20fc              MOVS     r0,#0xfc
000016  f7fffffe          BL       SendChar
00001a  20ff              MOVS     r0,#0xff
00001c  f7fffffe          BL       SendChar
000020  20ff              MOVS     r0,#0xff
000022  f7fffffe          BL       SendChar
;;;197    }
000026  bd10              POP      {r4,pc}
;;;198    /*! 
                          ENDP


                          AREA ||i.GUI_ConDots||, CODE, READONLY, ALIGN=1

                  GUI_ConDots PROC
;;;388    */
;;;389    void GUI_ConDots(uint8 mode,uint16 *dot,uint16 dot_cnt)
000000  b570              PUSH     {r4-r6,lr}
;;;390    {
000002  4605              MOV      r5,r0
000004  460e              MOV      r6,r1
000006  4614              MOV      r4,r2
;;;391        BEGIN_CMD();
000008  20ee              MOVS     r0,#0xee
00000a  f7fffffe          BL       SendChar
;;;392        TX_8(0x63);
00000e  2063              MOVS     r0,#0x63
000010  f7fffffe          BL       SendChar
;;;393        TX_8(mode);
000014  b2e8              UXTB     r0,r5
000016  f7fffffe          BL       SendChar
;;;394        TX_16N(dot,dot_cnt*2);
00001a  f64f70ff          MOV      r0,#0xffff
00001e  ea000144          AND      r1,r0,r4,LSL #1
000022  4630              MOV      r0,r6
000024  f7fffffe          BL       SendNU16
;;;395        END_CMD();
000028  20ff              MOVS     r0,#0xff
00002a  f7fffffe          BL       SendChar
00002e  20fc              MOVS     r0,#0xfc
000030  f7fffffe          BL       SendChar
000034  20ff              MOVS     r0,#0xff
000036  f7fffffe          BL       SendChar
00003a  20ff              MOVS     r0,#0xff
00003c  f7fffffe          BL       SendChar
;;;396    }
000040  bd70              POP      {r4-r6,pc}
;;;397    
                          ENDP


                          AREA ||i.GUI_ConSpaceDots||, CODE, READONLY, ALIGN=1

                  GUI_ConSpaceDots PROC
;;;404    */
;;;405    void GUI_ConSpaceDots(uint16 x,uint16 x_space,uint16 *dot_y,uint16 dot_cnt)
000000  e92d41f0          PUSH     {r4-r8,lr}
;;;406    {
000004  4604              MOV      r4,r0
000006  460d              MOV      r5,r1
000008  4616              MOV      r6,r2
00000a  461f              MOV      r7,r3
;;;407        BEGIN_CMD();
00000c  20ee              MOVS     r0,#0xee
00000e  f7fffffe          BL       SendChar
;;;408        TX_8(0x59);
000012  2059              MOVS     r0,#0x59
000014  f7fffffe          BL       SendChar
;;;409        TX_16(x);
000018  0a20              LSRS     r0,r4,#8
00001a  f7fffffe          BL       SendChar
00001e  b2e0              UXTB     r0,r4
000020  f7fffffe          BL       SendChar
;;;410        TX_16(x_space);
000024  0a28              LSRS     r0,r5,#8
000026  f7fffffe          BL       SendChar
00002a  b2e8              UXTB     r0,r5
00002c  f7fffffe          BL       SendChar
;;;411        TX_16N(dot_y,dot_cnt);
000030  4639              MOV      r1,r7
000032  4630              MOV      r0,r6
000034  f7fffffe          BL       SendNU16
;;;412        END_CMD();
000038  20ff              MOVS     r0,#0xff
00003a  f7fffffe          BL       SendChar
00003e  20fc              MOVS     r0,#0xfc
000040  f7fffffe          BL       SendChar
000044  20ff              MOVS     r0,#0xff
000046  f7fffffe          BL       SendChar
00004a  20ff              MOVS     r0,#0xff
00004c  f7fffffe          BL       SendChar
;;;413    }
000050  e8bd81f0          POP      {r4-r8,pc}
;;;414    /*! 
                          ENDP


                          AREA ||i.GUI_DispRTC||, CODE, READONLY, ALIGN=1

                  GUI_DispRTC PROC
;;;781    
;;;782    void GUI_DispRTC(uint8 enable,uint8 mode,uint8 font,uint16 color,uint16 x,uint16 y)
000000  e92d47f0          PUSH     {r4-r10,lr}
;;;783    {
000004  4605              MOV      r5,r0
000006  460e              MOV      r6,r1
000008  4617              MOV      r7,r2
00000a  461c              MOV      r4,r3
00000c  e9dd8908          LDRD     r8,r9,[sp,#0x20]
;;;784        BEGIN_CMD();
000010  20ee              MOVS     r0,#0xee
000012  f7fffffe          BL       SendChar
;;;785        TX_8(0x85);
000016  2085              MOVS     r0,#0x85
000018  f7fffffe          BL       SendChar
;;;786        TX_8(enable);
00001c  b2e8              UXTB     r0,r5
00001e  f7fffffe          BL       SendChar
;;;787        TX_8(mode);
000022  b2f0              UXTB     r0,r6
000024  f7fffffe          BL       SendChar
;;;788        TX_8(font);
000028  b2f8              UXTB     r0,r7
00002a  f7fffffe          BL       SendChar
;;;789        TX_16(color);
00002e  0a20              LSRS     r0,r4,#8
000030  f7fffffe          BL       SendChar
000034  b2e0              UXTB     r0,r4
000036  f7fffffe          BL       SendChar
;;;790        TX_16(x);
00003a  ea4f2018          LSR      r0,r8,#8
00003e  f7fffffe          BL       SendChar
000042  f00800ff          AND      r0,r8,#0xff
000046  f7fffffe          BL       SendChar
;;;791        TX_16(y);
00004a  ea4f2019          LSR      r0,r9,#8
00004e  f7fffffe          BL       SendChar
000052  f00900ff          AND      r0,r9,#0xff
000056  f7fffffe          BL       SendChar
;;;792        END_CMD();
00005a  20ff              MOVS     r0,#0xff
00005c  f7fffffe          BL       SendChar
000060  20fc              MOVS     r0,#0xfc
000062  f7fffffe          BL       SendChar
000066  20ff              MOVS     r0,#0xff
000068  f7fffffe          BL       SendChar
00006c  20ff              MOVS     r0,#0xff
00006e  f7fffffe          BL       SendChar
;;;793    }
000072  e8bd87f0          POP      {r4-r10,pc}
;;;794    /*! 
                          ENDP


                          AREA ||i.GUI_Dot||, CODE, READONLY, ALIGN=1

                  GUI_Dot PROC
;;;356    */
;;;357    void GUI_Dot(uint16 x,uint16 y)
000000  b570              PUSH     {r4-r6,lr}
;;;358    {
000002  4604              MOV      r4,r0
000004  460d              MOV      r5,r1
;;;359        BEGIN_CMD();
000006  20ee              MOVS     r0,#0xee
000008  f7fffffe          BL       SendChar
;;;360        TX_8(0x50);
00000c  2050              MOVS     r0,#0x50
00000e  f7fffffe          BL       SendChar
;;;361        TX_16(x);
000012  0a20              LSRS     r0,r4,#8
000014  f7fffffe          BL       SendChar
000018  b2e0              UXTB     r0,r4
00001a  f7fffffe          BL       SendChar
;;;362        TX_16(y);
00001e  0a28              LSRS     r0,r5,#8
000020  f7fffffe          BL       SendChar
000024  b2e8              UXTB     r0,r5
000026  f7fffffe          BL       SendChar
;;;363        END_CMD();
00002a  20ff              MOVS     r0,#0xff
00002c  f7fffffe          BL       SendChar
000030  20fc              MOVS     r0,#0xfc
000032  f7fffffe          BL       SendChar
000036  20ff              MOVS     r0,#0xff
000038  f7fffffe          BL       SendChar
00003c  20ff              MOVS     r0,#0xff
00003e  f7fffffe          BL       SendChar
;;;364    }
000042  bd70              POP      {r4-r6,pc}
;;;365    /*! 
                          ENDP


                          AREA ||i.GUI_Ellipse||, CODE, READONLY, ALIGN=1

                  GUI_Ellipse PROC
;;;576    */
;;;577    void GUI_Ellipse(uint16 x0, uint16 y0, uint16 x1,uint16 y1 )
000000  e92d41f0          PUSH     {r4-r8,lr}
;;;578    {
000004  4604              MOV      r4,r0
000006  460d              MOV      r5,r1
000008  4616              MOV      r6,r2
00000a  461f              MOV      r7,r3
;;;579        BEGIN_CMD();
00000c  20ee              MOVS     r0,#0xee
00000e  f7fffffe          BL       SendChar
;;;580        TX_8(0x56);
000012  2056              MOVS     r0,#0x56
000014  f7fffffe          BL       SendChar
;;;581        TX_16(x0);
000018  0a20              LSRS     r0,r4,#8
00001a  f7fffffe          BL       SendChar
00001e  b2e0              UXTB     r0,r4
000020  f7fffffe          BL       SendChar
;;;582        TX_16(y0);
000024  0a28              LSRS     r0,r5,#8
000026  f7fffffe          BL       SendChar
00002a  b2e8              UXTB     r0,r5
00002c  f7fffffe          BL       SendChar
;;;583        TX_16(x1);
000030  0a30              LSRS     r0,r6,#8
000032  f7fffffe          BL       SendChar
000036  b2f0              UXTB     r0,r6
000038  f7fffffe          BL       SendChar
;;;584        TX_16(y1);
00003c  0a38              LSRS     r0,r7,#8
00003e  f7fffffe          BL       SendChar
000042  b2f8              UXTB     r0,r7
000044  f7fffffe          BL       SendChar
;;;585        END_CMD();
000048  20ff              MOVS     r0,#0xff
00004a  f7fffffe          BL       SendChar
00004e  20fc              MOVS     r0,#0xfc
000050  f7fffffe          BL       SendChar
000054  20ff              MOVS     r0,#0xff
000056  f7fffffe          BL       SendChar
00005a  20ff              MOVS     r0,#0xff
00005c  f7fffffe          BL       SendChar
;;;586    }
000060  e8bd81f0          POP      {r4-r8,pc}
;;;587    /*! 
                          ENDP


                          AREA ||i.GUI_EllipseFill||, CODE, READONLY, ALIGN=1

                  GUI_EllipseFill PROC
;;;593    */
;;;594    void GUI_EllipseFill(uint16 x0, uint16 y0, uint16 x1,uint16 y1 )
000000  e92d41f0          PUSH     {r4-r8,lr}
;;;595    {
000004  4604              MOV      r4,r0
000006  460d              MOV      r5,r1
000008  4616              MOV      r6,r2
00000a  461f              MOV      r7,r3
;;;596        BEGIN_CMD();
00000c  20ee              MOVS     r0,#0xee
00000e  f7fffffe          BL       SendChar
;;;597        TX_8(0x57);
000012  2057              MOVS     r0,#0x57
000014  f7fffffe          BL       SendChar
;;;598        TX_16(x0);
000018  0a20              LSRS     r0,r4,#8
00001a  f7fffffe          BL       SendChar
00001e  b2e0              UXTB     r0,r4
000020  f7fffffe          BL       SendChar
;;;599        TX_16(y0);
000024  0a28              LSRS     r0,r5,#8
000026  f7fffffe          BL       SendChar
00002a  b2e8              UXTB     r0,r5
00002c  f7fffffe          BL       SendChar
;;;600        TX_16(x1);
000030  0a30              LSRS     r0,r6,#8
000032  f7fffffe          BL       SendChar
000036  b2f0              UXTB     r0,r6
000038  f7fffffe          BL       SendChar
;;;601        TX_16(y1);
00003c  0a38              LSRS     r0,r7,#8
00003e  f7fffffe          BL       SendChar
000042  b2f8              UXTB     r0,r7
000044  f7fffffe          BL       SendChar
;;;602        END_CMD();
000048  20ff              MOVS     r0,#0xff
00004a  f7fffffe          BL       SendChar
00004e  20fc              MOVS     r0,#0xfc
000050  f7fffffe          BL       SendChar
000054  20ff              MOVS     r0,#0xff
000056  f7fffffe          BL       SendChar
00005a  20ff              MOVS     r0,#0xff
00005c  f7fffffe          BL       SendChar
;;;603    }
000060  e8bd81f0          POP      {r4-r8,pc}
;;;604    /*! 
                          ENDP


                          AREA ||i.GUI_FcolorConDots||, CODE, READONLY, ALIGN=1

                  GUI_FcolorConDots PROC
;;;467    */
;;;468    void GUI_FcolorConDots(uint16 *dot,uint16 dot_cnt)
000000  b570              PUSH     {r4-r6,lr}
;;;469    {
000002  4605              MOV      r5,r0
000004  460c              MOV      r4,r1
;;;470        BEGIN_CMD();
000006  20ee              MOVS     r0,#0xee
000008  f7fffffe          BL       SendChar
;;;471        TX_8(0x68);
00000c  2068              MOVS     r0,#0x68
00000e  f7fffffe          BL       SendChar
;;;472        TX_16N(dot,dot_cnt*2);
000012  f64f70ff          MOV      r0,#0xffff
000016  ea000144          AND      r1,r0,r4,LSL #1
00001a  4628              MOV      r0,r5
00001c  f7fffffe          BL       SendNU16
;;;473        END_CMD();
000020  20ff              MOVS     r0,#0xff
000022  f7fffffe          BL       SendChar
000026  20fc              MOVS     r0,#0xfc
000028  f7fffffe          BL       SendChar
00002c  20ff              MOVS     r0,#0xff
00002e  f7fffffe          BL       SendChar
000032  20ff              MOVS     r0,#0xff
000034  f7fffffe          BL       SendChar
;;;474    }
000038  bd70              POP      {r4-r6,pc}
;;;475    /*! 
                          ENDP


                          AREA ||i.GUI_FcolorConOffsetDots||, CODE, READONLY, ALIGN=1

                  GUI_FcolorConOffsetDots PROC
;;;420    */
;;;421    void GUI_FcolorConOffsetDots(uint16 x,uint16 y,uint16 *dot_offset,uint16 dot_cnt)
000000  e92d41f0          PUSH     {r4-r8,lr}
;;;422    {
000004  4604              MOV      r4,r0
000006  460d              MOV      r5,r1
000008  4616              MOV      r6,r2
00000a  461f              MOV      r7,r3
;;;423        BEGIN_CMD();
00000c  20ee              MOVS     r0,#0xee
00000e  f7fffffe          BL       SendChar
;;;424        TX_8(0x75);
000012  2075              MOVS     r0,#0x75
000014  f7fffffe          BL       SendChar
;;;425        TX_16(x);
000018  0a20              LSRS     r0,r4,#8
00001a  f7fffffe          BL       SendChar
00001e  b2e0              UXTB     r0,r4
000020  f7fffffe          BL       SendChar
;;;426        TX_16(y);
000024  0a28              LSRS     r0,r5,#8
000026  f7fffffe          BL       SendChar
00002a  b2e8              UXTB     r0,r5
00002c  f7fffffe          BL       SendChar
;;;427        TX_16N(dot_offset,dot_cnt);
000030  4639              MOV      r1,r7
000032  4630              MOV      r0,r6
000034  f7fffffe          BL       SendNU16
;;;428        END_CMD();
000038  20ff              MOVS     r0,#0xff
00003a  f7fffffe          BL       SendChar
00003e  20fc              MOVS     r0,#0xfc
000040  f7fffffe          BL       SendChar
000044  20ff              MOVS     r0,#0xff
000046  f7fffffe          BL       SendChar
00004a  20ff              MOVS     r0,#0xff
00004c  f7fffffe          BL       SendChar
;;;429    }
000050  e8bd81f0          POP      {r4-r8,pc}
;;;430    /*! 
                          ENDP


                          AREA ||i.GUI_Line||, CODE, READONLY, ALIGN=1

                  GUI_Line PROC
;;;371    */
;;;372    void GUI_Line(uint16 x0, uint16 y0, uint16 x1, uint16 y1)
000000  e92d41f0          PUSH     {r4-r8,lr}
;;;373    {
000004  4604              MOV      r4,r0
000006  460d              MOV      r5,r1
000008  4616              MOV      r6,r2
00000a  461f              MOV      r7,r3
;;;374        BEGIN_CMD();
00000c  20ee              MOVS     r0,#0xee
00000e  f7fffffe          BL       SendChar
;;;375        TX_8(0x51);
000012  2051              MOVS     r0,#0x51
000014  f7fffffe          BL       SendChar
;;;376        TX_16(x0);
000018  0a20              LSRS     r0,r4,#8
00001a  f7fffffe          BL       SendChar
00001e  b2e0              UXTB     r0,r4
000020  f7fffffe          BL       SendChar
;;;377        TX_16(y0);
000024  0a28              LSRS     r0,r5,#8
000026  f7fffffe          BL       SendChar
00002a  b2e8              UXTB     r0,r5
00002c  f7fffffe          BL       SendChar
;;;378        TX_16(x1);
000030  0a30              LSRS     r0,r6,#8
000032  f7fffffe          BL       SendChar
000036  b2f0              UXTB     r0,r6
000038  f7fffffe          BL       SendChar
;;;379        TX_16(y1);
00003c  0a38              LSRS     r0,r7,#8
00003e  f7fffffe          BL       SendChar
000042  b2f8              UXTB     r0,r7
000044  f7fffffe          BL       SendChar
;;;380        END_CMD();
000048  20ff              MOVS     r0,#0xff
00004a  f7fffffe          BL       SendChar
00004e  20fc              MOVS     r0,#0xfc
000050  f7fffffe          BL       SendChar
000054  20ff              MOVS     r0,#0xff
000056  f7fffffe          BL       SendChar
00005a  20ff              MOVS     r0,#0xff
00005c  f7fffffe          BL       SendChar
;;;381    }
000060  e8bd81f0          POP      {r4-r8,pc}
;;;382    
                          ENDP


                          AREA ||i.GUI_Rectangle||, CODE, READONLY, ALIGN=1

                  GUI_Rectangle PROC
;;;542    */
;;;543    void GUI_Rectangle(uint16 x0, uint16 y0, uint16 x1,uint16 y1 )
000000  e92d41f0          PUSH     {r4-r8,lr}
;;;544    {
000004  4604              MOV      r4,r0
000006  460d              MOV      r5,r1
000008  4616              MOV      r6,r2
00000a  461f              MOV      r7,r3
;;;545        BEGIN_CMD();
00000c  20ee              MOVS     r0,#0xee
00000e  f7fffffe          BL       SendChar
;;;546        TX_8(0x54);
000012  2054              MOVS     r0,#0x54
000014  f7fffffe          BL       SendChar
;;;547        TX_16(x0);
000018  0a20              LSRS     r0,r4,#8
00001a  f7fffffe          BL       SendChar
00001e  b2e0              UXTB     r0,r4
000020  f7fffffe          BL       SendChar
;;;548        TX_16(y0);
000024  0a28              LSRS     r0,r5,#8
000026  f7fffffe          BL       SendChar
00002a  b2e8              UXTB     r0,r5
00002c  f7fffffe          BL       SendChar
;;;549        TX_16(x1);
000030  0a30              LSRS     r0,r6,#8
000032  f7fffffe          BL       SendChar
000036  b2f0              UXTB     r0,r6
000038  f7fffffe          BL       SendChar
;;;550        TX_16(y1);
00003c  0a38              LSRS     r0,r7,#8
00003e  f7fffffe          BL       SendChar
000042  b2f8              UXTB     r0,r7
000044  f7fffffe          BL       SendChar
;;;551        END_CMD();
000048  20ff              MOVS     r0,#0xff
00004a  f7fffffe          BL       SendChar
00004e  20fc              MOVS     r0,#0xfc
000050  f7fffffe          BL       SendChar
000054  20ff              MOVS     r0,#0xff
000056  f7fffffe          BL       SendChar
00005a  20ff              MOVS     r0,#0xff
00005c  f7fffffe          BL       SendChar
;;;552    }
000060  e8bd81f0          POP      {r4-r8,pc}
;;;553    /*! 
                          ENDP


                          AREA ||i.GUI_RectangleFill||, CODE, READONLY, ALIGN=1

                  GUI_RectangleFill PROC
;;;559    */
;;;560    void GUI_RectangleFill(uint16 x0, uint16 y0, uint16 x1,uint16 y1 )
000000  e92d41f0          PUSH     {r4-r8,lr}
;;;561    {
000004  4604              MOV      r4,r0
000006  460d              MOV      r5,r1
000008  4616              MOV      r6,r2
00000a  461f              MOV      r7,r3
;;;562        BEGIN_CMD();
00000c  20ee              MOVS     r0,#0xee
00000e  f7fffffe          BL       SendChar
;;;563        TX_8(0x55);
000012  2055              MOVS     r0,#0x55
000014  f7fffffe          BL       SendChar
;;;564        TX_16(x0);
000018  0a20              LSRS     r0,r4,#8
00001a  f7fffffe          BL       SendChar
00001e  b2e0              UXTB     r0,r4
000020  f7fffffe          BL       SendChar
;;;565        TX_16(y0);
000024  0a28              LSRS     r0,r5,#8
000026  f7fffffe          BL       SendChar
00002a  b2e8              UXTB     r0,r5
00002c  f7fffffe          BL       SendChar
;;;566        TX_16(x1);
000030  0a30              LSRS     r0,r6,#8
000032  f7fffffe          BL       SendChar
000036  b2f0              UXTB     r0,r6
000038  f7fffffe          BL       SendChar
;;;567        TX_16(y1);
00003c  0a38              LSRS     r0,r7,#8
00003e  f7fffffe          BL       SendChar
000042  b2f8              UXTB     r0,r7
000044  f7fffffe          BL       SendChar
;;;568        END_CMD();
000048  20ff              MOVS     r0,#0xff
00004a  f7fffffe          BL       SendChar
00004e  20fc              MOVS     r0,#0xfc
000050  f7fffffe          BL       SendChar
000054  20ff              MOVS     r0,#0xff
000056  f7fffffe          BL       SendChar
00005a  20ff              MOVS     r0,#0xff
00005c  f7fffffe          BL       SendChar
;;;569    }
000060  e8bd81f0          POP      {r4-r8,pc}
;;;570    /*! 
                          ENDP


                          AREA ||i.GetControlValue||, CODE, READONLY, ALIGN=1

                  GetControlValue PROC
;;;1078   */
;;;1079   void GetControlValue(uint16 screen_id,uint16 control_id)
000000  b570              PUSH     {r4-r6,lr}
;;;1080   {
000002  4604              MOV      r4,r0
000004  460d              MOV      r5,r1
;;;1081       BEGIN_CMD();
000006  20ee              MOVS     r0,#0xee
000008  f7fffffe          BL       SendChar
;;;1082       TX_8(0xB1);
00000c  20b1              MOVS     r0,#0xb1
00000e  f7fffffe          BL       SendChar
;;;1083       TX_8(0x11);
000012  2011              MOVS     r0,#0x11
000014  f7fffffe          BL       SendChar
;;;1084       TX_16(screen_id);
000018  0a20              LSRS     r0,r4,#8
00001a  f7fffffe          BL       SendChar
00001e  b2e0              UXTB     r0,r4
000020  f7fffffe          BL       SendChar
;;;1085       TX_16(control_id);
000024  0a28              LSRS     r0,r5,#8
000026  f7fffffe          BL       SendChar
00002a  b2e8              UXTB     r0,r5
00002c  f7fffffe          BL       SendChar
;;;1086       END_CMD();
000030  20ff              MOVS     r0,#0xff
000032  f7fffffe          BL       SendChar
000036  20fc              MOVS     r0,#0xfc
000038  f7fffffe          BL       SendChar
00003c  20ff              MOVS     r0,#0xff
00003e  f7fffffe          BL       SendChar
000042  20ff              MOVS     r0,#0xff
000044  f7fffffe          BL       SendChar
;;;1087   }
000048  bd70              POP      {r4-r6,pc}
;;;1088   
                          ENDP


                          AREA ||i.GetScreen||, CODE, READONLY, ALIGN=1

                  GetScreen PROC
;;;823    */
;;;824    void GetScreen(uint16 screen_id)
000000  b510              PUSH     {r4,lr}
;;;825    {
000002  4604              MOV      r4,r0
;;;826        BEGIN_CMD();
000004  20ee              MOVS     r0,#0xee
000006  f7fffffe          BL       SendChar
;;;827        TX_8(0xB1);
00000a  20b1              MOVS     r0,#0xb1
00000c  f7fffffe          BL       SendChar
;;;828        TX_8(0x01);
000010  2001              MOVS     r0,#1
000012  f7fffffe          BL       SendChar
;;;829        END_CMD();
000016  20ff              MOVS     r0,#0xff
000018  f7fffffe          BL       SendChar
00001c  20fc              MOVS     r0,#0xfc
00001e  f7fffffe          BL       SendChar
000022  20ff              MOVS     r0,#0xff
000024  f7fffffe          BL       SendChar
000028  20ff              MOVS     r0,#0xff
00002a  f7fffffe          BL       SendChar
;;;830    }
00002e  bd10              POP      {r4,pc}
;;;831    /*! 
                          ENDP


                          AREA ||i.GetStringLen||, CODE, READONLY, ALIGN=1

                  GetStringLen PROC
;;;1326   */
;;;1327   uint32 GetStringLen(uchar *str)
000000  4601              MOV      r1,r0
;;;1328   {
;;;1329       uchar *p = str;
000002  460a              MOV      r2,r1
;;;1330       while(*str)
000004  e000              B        |L53.8|
                  |L53.6|
;;;1331       {
;;;1332           str++;
000006  1c49              ADDS     r1,r1,#1
                  |L53.8|
000008  7808              LDRB     r0,[r1,#0]            ;1330
00000a  2800              CMP      r0,#0                 ;1330
00000c  d1fb              BNE      |L53.6|
;;;1333       }
;;;1334   
;;;1335       return (str-p);
00000e  1a88              SUBS     r0,r1,r2
;;;1336   } 
000010  4770              BX       lr
;;;1337   /*! 
                          ENDP


                          AREA ||i.GraphChannelAdd||, CODE, READONLY, ALIGN=1

                  GraphChannelAdd PROC
;;;1182   */
;;;1183   void GraphChannelAdd(uint16 screen_id,uint16 control_id,uint8 channel,uint16 color)
000000  e92d41f0          PUSH     {r4-r8,lr}
;;;1184   {
000004  4604              MOV      r4,r0
000006  460d              MOV      r5,r1
000008  4617              MOV      r7,r2
00000a  461e              MOV      r6,r3
;;;1185       BEGIN_CMD();
00000c  20ee              MOVS     r0,#0xee
00000e  f7fffffe          BL       SendChar
;;;1186       TX_8(0xB1);
000012  20b1              MOVS     r0,#0xb1
000014  f7fffffe          BL       SendChar
;;;1187       TX_8(0x30);
000018  2030              MOVS     r0,#0x30
00001a  f7fffffe          BL       SendChar
;;;1188       TX_16(screen_id);
00001e  0a20              LSRS     r0,r4,#8
000020  f7fffffe          BL       SendChar
000024  b2e0              UXTB     r0,r4
000026  f7fffffe          BL       SendChar
;;;1189       TX_16(control_id);
00002a  0a28              LSRS     r0,r5,#8
00002c  f7fffffe          BL       SendChar
000030  b2e8              UXTB     r0,r5
000032  f7fffffe          BL       SendChar
;;;1190       TX_8(channel);
000036  b2f8              UXTB     r0,r7
000038  f7fffffe          BL       SendChar
;;;1191       TX_16(color);
00003c  0a30              LSRS     r0,r6,#8
00003e  f7fffffe          BL       SendChar
000042  b2f0              UXTB     r0,r6
000044  f7fffffe          BL       SendChar
;;;1192       END_CMD();
000048  20ff              MOVS     r0,#0xff
00004a  f7fffffe          BL       SendChar
00004e  20fc              MOVS     r0,#0xfc
000050  f7fffffe          BL       SendChar
000054  20ff              MOVS     r0,#0xff
000056  f7fffffe          BL       SendChar
00005a  20ff              MOVS     r0,#0xff
00005c  f7fffffe          BL       SendChar
;;;1193   }
000060  e8bd81f0          POP      {r4-r8,pc}
;;;1194   /*! 
                          ENDP


                          AREA ||i.GraphChannelDataAdd||, CODE, READONLY, ALIGN=1

                  GraphChannelDataAdd PROC
;;;1217   */
;;;1218   void GraphChannelDataAdd(uint16 screen_id,uint16 control_id,uint8 channel,uint8 *pData,uint16 nDataLen)
000000  e92d41f0          PUSH     {r4-r8,lr}
;;;1219   {
000004  4604              MOV      r4,r0
000006  460d              MOV      r5,r1
000008  4617              MOV      r7,r2
00000a  4698              MOV      r8,r3
00000c  9e06              LDR      r6,[sp,#0x18]
;;;1220       BEGIN_CMD();
00000e  20ee              MOVS     r0,#0xee
000010  f7fffffe          BL       SendChar
;;;1221       TX_8(0xB1);
000014  20b1              MOVS     r0,#0xb1
000016  f7fffffe          BL       SendChar
;;;1222       TX_8(0x32);
00001a  2032              MOVS     r0,#0x32
00001c  f7fffffe          BL       SendChar
;;;1223       TX_16(screen_id);
000020  0a20              LSRS     r0,r4,#8
000022  f7fffffe          BL       SendChar
000026  b2e0              UXTB     r0,r4
000028  f7fffffe          BL       SendChar
;;;1224       TX_16(control_id);
00002c  0a28              LSRS     r0,r5,#8
00002e  f7fffffe          BL       SendChar
000032  b2e8              UXTB     r0,r5
000034  f7fffffe          BL       SendChar
;;;1225       TX_8(channel);
000038  b2f8              UXTB     r0,r7
00003a  f7fffffe          BL       SendChar
;;;1226       TX_16(nDataLen);
00003e  0a30              LSRS     r0,r6,#8
000040  f7fffffe          BL       SendChar
000044  b2f0              UXTB     r0,r6
000046  f7fffffe          BL       SendChar
;;;1227       TX_8N(pData,nDataLen);
00004a  4631              MOV      r1,r6
00004c  4640              MOV      r0,r8
00004e  f7fffffe          BL       SendNU8
;;;1228       END_CMD();
000052  20ff              MOVS     r0,#0xff
000054  f7fffffe          BL       SendChar
000058  20fc              MOVS     r0,#0xfc
00005a  f7fffffe          BL       SendChar
00005e  20ff              MOVS     r0,#0xff
000060  f7fffffe          BL       SendChar
000064  20ff              MOVS     r0,#0xff
000066  f7fffffe          BL       SendChar
;;;1229   }
00006a  e8bd81f0          POP      {r4-r8,pc}
;;;1230   /*! 
                          ENDP


                          AREA ||i.GraphChannelDataClear||, CODE, READONLY, ALIGN=1

                  GraphChannelDataClear PROC
;;;1235   */
;;;1236   void GraphChannelDataClear(uint16 screen_id,uint16 control_id,uint8 channel)
000000  b570              PUSH     {r4-r6,lr}
;;;1237   {
000002  4604              MOV      r4,r0
000004  460d              MOV      r5,r1
000006  4616              MOV      r6,r2
;;;1238       BEGIN_CMD();
000008  20ee              MOVS     r0,#0xee
00000a  f7fffffe          BL       SendChar
;;;1239       TX_8(0xB1);
00000e  20b1              MOVS     r0,#0xb1
000010  f7fffffe          BL       SendChar
;;;1240       TX_8(0x33);
000014  2033              MOVS     r0,#0x33
000016  f7fffffe          BL       SendChar
;;;1241       TX_16(screen_id);
00001a  0a20              LSRS     r0,r4,#8
00001c  f7fffffe          BL       SendChar
000020  b2e0              UXTB     r0,r4
000022  f7fffffe          BL       SendChar
;;;1242       TX_16(control_id);
000026  0a28              LSRS     r0,r5,#8
000028  f7fffffe          BL       SendChar
00002c  b2e8              UXTB     r0,r5
00002e  f7fffffe          BL       SendChar
;;;1243       TX_8(channel);
000032  b2f0              UXTB     r0,r6
000034  f7fffffe          BL       SendChar
;;;1244       END_CMD();
000038  20ff              MOVS     r0,#0xff
00003a  f7fffffe          BL       SendChar
00003e  20fc              MOVS     r0,#0xfc
000040  f7fffffe          BL       SendChar
000044  20ff              MOVS     r0,#0xff
000046  f7fffffe          BL       SendChar
00004a  20ff              MOVS     r0,#0xff
00004c  f7fffffe          BL       SendChar
;;;1245   }
000050  bd70              POP      {r4-r6,pc}
;;;1246   /*! 
                          ENDP


                          AREA ||i.GraphChannelDel||, CODE, READONLY, ALIGN=1

                  GraphChannelDel PROC
;;;1199   */
;;;1200   void GraphChannelDel(uint16 screen_id,uint16 control_id,uint8 channel)
000000  b570              PUSH     {r4-r6,lr}
;;;1201   {
000002  4604              MOV      r4,r0
000004  460d              MOV      r5,r1
000006  4616              MOV      r6,r2
;;;1202       BEGIN_CMD();
000008  20ee              MOVS     r0,#0xee
00000a  f7fffffe          BL       SendChar
;;;1203       TX_8(0xB1);
00000e  20b1              MOVS     r0,#0xb1
000010  f7fffffe          BL       SendChar
;;;1204       TX_8(0x31);
000014  2031              MOVS     r0,#0x31
000016  f7fffffe          BL       SendChar
;;;1205       TX_16(screen_id);
00001a  0a20              LSRS     r0,r4,#8
00001c  f7fffffe          BL       SendChar
000020  b2e0              UXTB     r0,r4
000022  f7fffffe          BL       SendChar
;;;1206       TX_16(control_id);
000026  0a28              LSRS     r0,r5,#8
000028  f7fffffe          BL       SendChar
00002c  b2e8              UXTB     r0,r5
00002e  f7fffffe          BL       SendChar
;;;1207       TX_8(channel);
000032  b2f0              UXTB     r0,r6
000034  f7fffffe          BL       SendChar
;;;1208       END_CMD();
000038  20ff              MOVS     r0,#0xff
00003a  f7fffffe          BL       SendChar
00003e  20fc              MOVS     r0,#0xfc
000040  f7fffffe          BL       SendChar
000044  20ff              MOVS     r0,#0xff
000046  f7fffffe          BL       SendChar
00004a  20ff              MOVS     r0,#0xff
00004c  f7fffffe          BL       SendChar
;;;1209   }
000050  bd70              POP      {r4-r6,pc}
;;;1210   /*! 
                          ENDP


                          AREA ||i.GraphSetViewport||, CODE, READONLY, ALIGN=1

                  GraphSetViewport PROC
;;;1254   */
;;;1255   void GraphSetViewport(uint16 screen_id,uint16 control_id,int16 x_offset,uint16 x_mul,int16 y_offset,uint16 y_mul)
000000  e92d47f0          PUSH     {r4-r10,lr}
;;;1256   {
000004  4604              MOV      r4,r0
000006  460d              MOV      r5,r1
000008  4616              MOV      r6,r2
00000a  461f              MOV      r7,r3
00000c  e9dd8908          LDRD     r8,r9,[sp,#0x20]
;;;1257       BEGIN_CMD();
000010  20ee              MOVS     r0,#0xee
000012  f7fffffe          BL       SendChar
;;;1258       TX_8(0xB1);
000016  20b1              MOVS     r0,#0xb1
000018  f7fffffe          BL       SendChar
;;;1259       TX_8(0x34);
00001c  2034              MOVS     r0,#0x34
00001e  f7fffffe          BL       SendChar
;;;1260       TX_16(screen_id);
000022  0a20              LSRS     r0,r4,#8
000024  f7fffffe          BL       SendChar
000028  b2e0              UXTB     r0,r4
00002a  f7fffffe          BL       SendChar
;;;1261       TX_16(control_id);
00002e  0a28              LSRS     r0,r5,#8
000030  f7fffffe          BL       SendChar
000034  b2e8              UXTB     r0,r5
000036  f7fffffe          BL       SendChar
;;;1262       TX_16(x_offset);
00003a  f3c62007          UBFX     r0,r6,#8,#8
00003e  f7fffffe          BL       SendChar
000042  b2f0              UXTB     r0,r6
000044  f7fffffe          BL       SendChar
;;;1263       TX_16(x_mul);
000048  0a38              LSRS     r0,r7,#8
00004a  f7fffffe          BL       SendChar
00004e  b2f8              UXTB     r0,r7
000050  f7fffffe          BL       SendChar
;;;1264       TX_16(y_offset);
000054  f3c82007          UBFX     r0,r8,#8,#8
000058  f7fffffe          BL       SendChar
00005c  f00800ff          AND      r0,r8,#0xff
000060  f7fffffe          BL       SendChar
;;;1265       TX_16(y_mul);
000064  ea4f2019          LSR      r0,r9,#8
000068  f7fffffe          BL       SendChar
00006c  f00900ff          AND      r0,r9,#0xff
000070  f7fffffe          BL       SendChar
;;;1266       END_CMD();
000074  20ff              MOVS     r0,#0xff
000076  f7fffffe          BL       SendChar
00007a  20fc              MOVS     r0,#0xfc
00007c  f7fffffe          BL       SendChar
000080  20ff              MOVS     r0,#0xff
000082  f7fffffe          BL       SendChar
000086  20ff              MOVS     r0,#0xff
000088  f7fffffe          BL       SendChar
;;;1267   }
00008c  e8bd87f0          POP      {r4-r10,pc}
;;;1268   /*! 
                          ENDP


                          AREA ||i.HistoryGraph_EnableSampling||, CODE, READONLY, ALIGN=1

                  HistoryGraph_EnableSampling PROC
;;;1686   */
;;;1687   void HistoryGraph_EnableSampling(uint16 screen_id,uint16 control_id,uint8 enable)
000000  b570              PUSH     {r4-r6,lr}
;;;1688   {
000002  4604              MOV      r4,r0
000004  460d              MOV      r5,r1
000006  4616              MOV      r6,r2
;;;1689       BEGIN_CMD();
000008  20ee              MOVS     r0,#0xee
00000a  f7fffffe          BL       SendChar
;;;1690       TX_8(0xB1);
00000e  20b1              MOVS     r0,#0xb1
000010  f7fffffe          BL       SendChar
;;;1691       TX_8(0x61);
000014  2061              MOVS     r0,#0x61
000016  f7fffffe          BL       SendChar
;;;1692       TX_16(screen_id);
00001a  0a20              LSRS     r0,r4,#8
00001c  f7fffffe          BL       SendChar
000020  b2e0              UXTB     r0,r4
000022  f7fffffe          BL       SendChar
;;;1693       TX_16(control_id);
000026  0a28              LSRS     r0,r5,#8
000028  f7fffffe          BL       SendChar
00002c  b2e8              UXTB     r0,r5
00002e  f7fffffe          BL       SendChar
;;;1694       TX_8(enable);
000032  b2f0              UXTB     r0,r6
000034  f7fffffe          BL       SendChar
;;;1695       END_CMD();
000038  20ff              MOVS     r0,#0xff
00003a  f7fffffe          BL       SendChar
00003e  20fc              MOVS     r0,#0xfc
000040  f7fffffe          BL       SendChar
000044  20ff              MOVS     r0,#0xff
000046  f7fffffe          BL       SendChar
00004a  20ff              MOVS     r0,#0xff
00004c  f7fffffe          BL       SendChar
;;;1696   }
000050  bd70              POP      {r4-r6,pc}
;;;1697   /*! 
                          ENDP


                          AREA ||i.HistoryGraph_SetTimeFullScreen||, CODE, READONLY, ALIGN=1

                  HistoryGraph_SetTimeFullScreen PROC
;;;1737   */
;;;1738   void HistoryGraph_SetTimeFullScreen(uint16 screen_id,uint16 control_id)
000000  b570              PUSH     {r4-r6,lr}
;;;1739   {
000002  4604              MOV      r4,r0
000004  460d              MOV      r5,r1
;;;1740       BEGIN_CMD();
000006  20ee              MOVS     r0,#0xee
000008  f7fffffe          BL       SendChar
;;;1741       TX_8(0xB1);
00000c  20b1              MOVS     r0,#0xb1
00000e  f7fffffe          BL       SendChar
;;;1742       TX_8(0x63);
000012  2063              MOVS     r0,#0x63
000014  f7fffffe          BL       SendChar
;;;1743       TX_16(screen_id);
000018  0a20              LSRS     r0,r4,#8
00001a  f7fffffe          BL       SendChar
00001e  b2e0              UXTB     r0,r4
000020  f7fffffe          BL       SendChar
;;;1744       TX_16(control_id);
000024  0a28              LSRS     r0,r5,#8
000026  f7fffffe          BL       SendChar
00002a  b2e8              UXTB     r0,r5
00002c  f7fffffe          BL       SendChar
;;;1745       TX_8(0x01);
000030  2001              MOVS     r0,#1
000032  f7fffffe          BL       SendChar
;;;1746       END_CMD();
000036  20ff              MOVS     r0,#0xff
000038  f7fffffe          BL       SendChar
00003c  20fc              MOVS     r0,#0xfc
00003e  f7fffffe          BL       SendChar
000042  20ff              MOVS     r0,#0xff
000044  f7fffffe          BL       SendChar
000048  20ff              MOVS     r0,#0xff
00004a  f7fffffe          BL       SendChar
;;;1747   }
00004e  bd70              POP      {r4-r6,pc}
;;;1748   /*! 
                          ENDP


                          AREA ||i.HistoryGraph_SetTimeLength||, CODE, READONLY, ALIGN=1

                  HistoryGraph_SetTimeLength PROC
;;;1720   */
;;;1721   void HistoryGraph_SetTimeLength(uint16 screen_id,uint16 control_id,uint16 sample_count)
000000  b570              PUSH     {r4-r6,lr}
;;;1722   {
000002  4604              MOV      r4,r0
000004  460d              MOV      r5,r1
000006  4616              MOV      r6,r2
;;;1723       BEGIN_CMD();
000008  20ee              MOVS     r0,#0xee
00000a  f7fffffe          BL       SendChar
;;;1724       TX_8(0xB1);
00000e  20b1              MOVS     r0,#0xb1
000010  f7fffffe          BL       SendChar
;;;1725       TX_8(0x63);
000014  2063              MOVS     r0,#0x63
000016  f7fffffe          BL       SendChar
;;;1726       TX_16(screen_id);
00001a  0a20              LSRS     r0,r4,#8
00001c  f7fffffe          BL       SendChar
000020  b2e0              UXTB     r0,r4
000022  f7fffffe          BL       SendChar
;;;1727       TX_16(control_id);
000026  0a28              LSRS     r0,r5,#8
000028  f7fffffe          BL       SendChar
00002c  b2e8              UXTB     r0,r5
00002e  f7fffffe          BL       SendChar
;;;1728       TX_8(0x00);
000032  2000              MOVS     r0,#0
000034  f7fffffe          BL       SendChar
;;;1729       TX_16(sample_count);
000038  0a30              LSRS     r0,r6,#8
00003a  f7fffffe          BL       SendChar
00003e  b2f0              UXTB     r0,r6
000040  f7fffffe          BL       SendChar
;;;1730       END_CMD();
000044  20ff              MOVS     r0,#0xff
000046  f7fffffe          BL       SendChar
00004a  20fc              MOVS     r0,#0xfc
00004c  f7fffffe          BL       SendChar
000050  20ff              MOVS     r0,#0xff
000052  f7fffffe          BL       SendChar
000056  20ff              MOVS     r0,#0xff
000058  f7fffffe          BL       SendChar
;;;1731   }
00005c  bd70              POP      {r4-r6,pc}
;;;1732   
                          ENDP


                          AREA ||i.HistoryGraph_SetTimeZoom||, CODE, READONLY, ALIGN=1

                  HistoryGraph_SetTimeZoom PROC
;;;1755   */
;;;1756   void HistoryGraph_SetTimeZoom(uint16 screen_id,uint16 control_id,uint16 zoom,uint16 max_zoom,uint16 min_zoom)
000000  e92d41f0          PUSH     {r4-r8,lr}
;;;1757   {
000004  4604              MOV      r4,r0
000006  460d              MOV      r5,r1
000008  4616              MOV      r6,r2
00000a  461f              MOV      r7,r3
00000c  f8dd8018          LDR      r8,[sp,#0x18]
;;;1758       BEGIN_CMD();
000010  20ee              MOVS     r0,#0xee
000012  f7fffffe          BL       SendChar
;;;1759       TX_8(0xB1);
000016  20b1              MOVS     r0,#0xb1
000018  f7fffffe          BL       SendChar
;;;1760       TX_8(0x63);
00001c  2063              MOVS     r0,#0x63
00001e  f7fffffe          BL       SendChar
;;;1761       TX_16(screen_id);
000022  0a20              LSRS     r0,r4,#8
000024  f7fffffe          BL       SendChar
000028  b2e0              UXTB     r0,r4
00002a  f7fffffe          BL       SendChar
;;;1762       TX_16(control_id);
00002e  0a28              LSRS     r0,r5,#8
000030  f7fffffe          BL       SendChar
000034  b2e8              UXTB     r0,r5
000036  f7fffffe          BL       SendChar
;;;1763       TX_8(0x02);
00003a  2002              MOVS     r0,#2
00003c  f7fffffe          BL       SendChar
;;;1764       TX_16(zoom);
000040  0a30              LSRS     r0,r6,#8
000042  f7fffffe          BL       SendChar
000046  b2f0              UXTB     r0,r6
000048  f7fffffe          BL       SendChar
;;;1765       TX_16(max_zoom);
00004c  0a38              LSRS     r0,r7,#8
00004e  f7fffffe          BL       SendChar
000052  b2f8              UXTB     r0,r7
000054  f7fffffe          BL       SendChar
;;;1766       TX_16(min_zoom);
000058  ea4f2018          LSR      r0,r8,#8
00005c  f7fffffe          BL       SendChar
000060  f00800ff          AND      r0,r8,#0xff
000064  f7fffffe          BL       SendChar
;;;1767       END_CMD();
000068  20ff              MOVS     r0,#0xff
00006a  f7fffffe          BL       SendChar
00006e  20fc              MOVS     r0,#0xfc
000070  f7fffffe          BL       SendChar
000074  20ff              MOVS     r0,#0xff
000076  f7fffffe          BL       SendChar
00007a  20ff              MOVS     r0,#0xff
00007c  f7fffffe          BL       SendChar
;;;1768   }
000080  e8bd81f0          POP      {r4-r8,pc}
;;;1769   
                          ENDP


                          AREA ||i.HistoryGraph_SetValueFloat||, CODE, READONLY, ALIGN=1

                  HistoryGraph_SetValueFloat PROC
;;;1661   */
;;;1662   void HistoryGraph_SetValueFloat(uint16 screen_id,uint16 control_id,float *value,uint8 channel)
000000  e92d47f0          PUSH     {r4-r10,lr}
;;;1663   {
000004  4605              MOV      r5,r0
000006  460e              MOV      r6,r1
000008  4690              MOV      r8,r2
00000a  4699              MOV      r9,r3
;;;1664       uint8 i = 0;
00000c  2700              MOVS     r7,#0
;;;1665       uint32 tmp = 0;
00000e  2400              MOVS     r4,#0
;;;1666   
;;;1667       BEGIN_CMD();
000010  20ee              MOVS     r0,#0xee
000012  f7fffffe          BL       SendChar
;;;1668       TX_8(0xB1);
000016  20b1              MOVS     r0,#0xb1
000018  f7fffffe          BL       SendChar
;;;1669       TX_8(0x60);
00001c  2060              MOVS     r0,#0x60
00001e  f7fffffe          BL       SendChar
;;;1670       TX_16(screen_id);
000022  0a28              LSRS     r0,r5,#8
000024  f7fffffe          BL       SendChar
000028  b2e8              UXTB     r0,r5
00002a  f7fffffe          BL       SendChar
;;;1671       TX_16(control_id);
00002e  0a30              LSRS     r0,r6,#8
000030  f7fffffe          BL       SendChar
000034  b2f0              UXTB     r0,r6
000036  f7fffffe          BL       SendChar
;;;1672   
;;;1673       for (;i<channel;++i)
00003a  e011              B        |L63.96|
                  |L63.60|
;;;1674       {
;;;1675           tmp = *(uint32 *)(value+i);
00003c  f8584027          LDR      r4,[r8,r7,LSL #2]
;;;1676           TX_32(tmp);
000040  0e20              LSRS     r0,r4,#24
000042  f7fffffe          BL       SendChar
000046  f3c44007          UBFX     r0,r4,#16,#8
00004a  f7fffffe          BL       SendChar
00004e  f3c42007          UBFX     r0,r4,#8,#8
000052  f7fffffe          BL       SendChar
000056  b2e0              UXTB     r0,r4
000058  f7fffffe          BL       SendChar
00005c  1c78              ADDS     r0,r7,#1              ;1673
00005e  b2c7              UXTB     r7,r0                 ;1673
                  |L63.96|
000060  454f              CMP      r7,r9                 ;1673
000062  dbeb              BLT      |L63.60|
;;;1677       }
;;;1678   
;;;1679       END_CMD();
000064  20ff              MOVS     r0,#0xff
000066  f7fffffe          BL       SendChar
00006a  20fc              MOVS     r0,#0xfc
00006c  f7fffffe          BL       SendChar
000070  20ff              MOVS     r0,#0xff
000072  f7fffffe          BL       SendChar
000076  20ff              MOVS     r0,#0xff
000078  f7fffffe          BL       SendChar
;;;1680   }
00007c  e8bd87f0          POP      {r4-r10,pc}
;;;1681   /*! 
                          ENDP


                          AREA ||i.HistoryGraph_SetValueInt16||, CODE, READONLY, ALIGN=1

                  HistoryGraph_SetValueInt16 PROC
;;;1620   */
;;;1621   void HistoryGraph_SetValueInt16(uint16 screen_id,uint16 control_id,uint16 *value,uint8 channel)
000000  e92d41f0          PUSH     {r4-r8,lr}
;;;1622   {
000004  4604              MOV      r4,r0
000006  460d              MOV      r5,r1
000008  4616              MOV      r6,r2
00000a  461f              MOV      r7,r3
;;;1623       BEGIN_CMD();
00000c  20ee              MOVS     r0,#0xee
00000e  f7fffffe          BL       SendChar
;;;1624       TX_8(0xB1);
000012  20b1              MOVS     r0,#0xb1
000014  f7fffffe          BL       SendChar
;;;1625       TX_8(0x60);
000018  2060              MOVS     r0,#0x60
00001a  f7fffffe          BL       SendChar
;;;1626       TX_16(screen_id);
00001e  0a20              LSRS     r0,r4,#8
000020  f7fffffe          BL       SendChar
000024  b2e0              UXTB     r0,r4
000026  f7fffffe          BL       SendChar
;;;1627       TX_16(control_id);
00002a  0a28              LSRS     r0,r5,#8
00002c  f7fffffe          BL       SendChar
000030  b2e8              UXTB     r0,r5
000032  f7fffffe          BL       SendChar
;;;1628       TX_16N(value,channel);
000036  4639              MOV      r1,r7
000038  4630              MOV      r0,r6
00003a  f7fffffe          BL       SendNU16
;;;1629       END_CMD();
00003e  20ff              MOVS     r0,#0xff
000040  f7fffffe          BL       SendChar
000044  20fc              MOVS     r0,#0xfc
000046  f7fffffe          BL       SendChar
00004a  20ff              MOVS     r0,#0xff
00004c  f7fffffe          BL       SendChar
000050  20ff              MOVS     r0,#0xff
000052  f7fffffe          BL       SendChar
;;;1630   }
000056  e8bd81f0          POP      {r4-r8,pc}
;;;1631   /*! 
                          ENDP


                          AREA ||i.HistoryGraph_SetValueInt32||, CODE, READONLY, ALIGN=1

                  HistoryGraph_SetValueInt32 PROC
;;;1637   */
;;;1638   void HistoryGraph_SetValueInt32(uint16 screen_id,uint16 control_id,uint32 *value,uint8 channel)
000000  e92d41f0          PUSH     {r4-r8,lr}
;;;1639   {
000004  4606              MOV      r6,r0
000006  460f              MOV      r7,r1
000008  4615              MOV      r5,r2
00000a  4698              MOV      r8,r3
;;;1640       uint8 i = 0;
00000c  2400              MOVS     r4,#0
;;;1641   
;;;1642       BEGIN_CMD();
00000e  20ee              MOVS     r0,#0xee
000010  f7fffffe          BL       SendChar
;;;1643       TX_8(0xB1);
000014  20b1              MOVS     r0,#0xb1
000016  f7fffffe          BL       SendChar
;;;1644       TX_8(0x60);
00001a  2060              MOVS     r0,#0x60
00001c  f7fffffe          BL       SendChar
;;;1645       TX_16(screen_id);
000020  0a30              LSRS     r0,r6,#8
000022  f7fffffe          BL       SendChar
000026  b2f0              UXTB     r0,r6
000028  f7fffffe          BL       SendChar
;;;1646       TX_16(control_id);
00002c  0a38              LSRS     r0,r7,#8
00002e  f7fffffe          BL       SendChar
000032  b2f8              UXTB     r0,r7
000034  f7fffffe          BL       SendChar
;;;1647   
;;;1648       for (;i<channel;++i)
000038  e016              B        |L65.104|
                  |L65.58|
;;;1649       {
;;;1650           TX_32(value[i]);
00003a  f8551024          LDR      r1,[r5,r4,LSL #2]
00003e  0e08              LSRS     r0,r1,#24
000040  f7fffffe          BL       SendChar
000044  f8551024          LDR      r1,[r5,r4,LSL #2]
000048  f3c14007          UBFX     r0,r1,#16,#8
00004c  f7fffffe          BL       SendChar
000050  f8351024          LDRH     r1,[r5,r4,LSL #2]
000054  f3c12007          UBFX     r0,r1,#8,#8
000058  f7fffffe          BL       SendChar
00005c  f8150024          LDRB     r0,[r5,r4,LSL #2]
000060  f7fffffe          BL       SendChar
000064  1c60              ADDS     r0,r4,#1              ;1648
000066  b2c4              UXTB     r4,r0                 ;1648
                  |L65.104|
000068  4544              CMP      r4,r8                 ;1648
00006a  dbe6              BLT      |L65.58|
;;;1651       }
;;;1652   
;;;1653       END_CMD();
00006c  20ff              MOVS     r0,#0xff
00006e  f7fffffe          BL       SendChar
000072  20fc              MOVS     r0,#0xfc
000074  f7fffffe          BL       SendChar
000078  20ff              MOVS     r0,#0xff
00007a  f7fffffe          BL       SendChar
00007e  20ff              MOVS     r0,#0xff
000080  f7fffffe          BL       SendChar
;;;1654   }
000084  e8bd81f0          POP      {r4-r8,pc}
;;;1655   /*! 
                          ENDP


                          AREA ||i.HistoryGraph_SetValueInt8||, CODE, READONLY, ALIGN=1

                  HistoryGraph_SetValueInt8 PROC
;;;1603   */
;;;1604   void HistoryGraph_SetValueInt8(uint16 screen_id,uint16 control_id,uint8 *value,uint8 channel)
000000  e92d41f0          PUSH     {r4-r8,lr}
;;;1605   {
000004  4604              MOV      r4,r0
000006  460d              MOV      r5,r1
000008  4616              MOV      r6,r2
00000a  461f              MOV      r7,r3
;;;1606       BEGIN_CMD();
00000c  20ee              MOVS     r0,#0xee
00000e  f7fffffe          BL       SendChar
;;;1607       TX_8(0xB1);
000012  20b1              MOVS     r0,#0xb1
000014  f7fffffe          BL       SendChar
;;;1608       TX_8(0x60);
000018  2060              MOVS     r0,#0x60
00001a  f7fffffe          BL       SendChar
;;;1609       TX_16(screen_id);
00001e  0a20              LSRS     r0,r4,#8
000020  f7fffffe          BL       SendChar
000024  b2e0              UXTB     r0,r4
000026  f7fffffe          BL       SendChar
;;;1610       TX_16(control_id);
00002a  0a28              LSRS     r0,r5,#8
00002c  f7fffffe          BL       SendChar
000030  b2e8              UXTB     r0,r5
000032  f7fffffe          BL       SendChar
;;;1611       TX_8N(value,channel);
000036  4639              MOV      r1,r7
000038  4630              MOV      r0,r6
00003a  f7fffffe          BL       SendNU8
;;;1612       END_CMD();
00003e  20ff              MOVS     r0,#0xff
000040  f7fffffe          BL       SendChar
000044  20fc              MOVS     r0,#0xfc
000046  f7fffffe          BL       SendChar
00004a  20ff              MOVS     r0,#0xff
00004c  f7fffffe          BL       SendChar
000050  20ff              MOVS     r0,#0xff
000052  f7fffffe          BL       SendChar
;;;1613   }
000056  e8bd81f0          POP      {r4-r8,pc}
;;;1614   /*! 
                          ENDP


                          AREA ||i.HistoryGraph_ShowChannel||, CODE, READONLY, ALIGN=1

                  HistoryGraph_ShowChannel PROC
;;;1703   */
;;;1704   void HistoryGraph_ShowChannel(uint16 screen_id,uint16 control_id,uint8 channel,uint8 show)
000000  e92d41f0          PUSH     {r4-r8,lr}
;;;1705   {
000004  4604              MOV      r4,r0
000006  460d              MOV      r5,r1
000008  4616              MOV      r6,r2
00000a  461f              MOV      r7,r3
;;;1706       BEGIN_CMD();
00000c  20ee              MOVS     r0,#0xee
00000e  f7fffffe          BL       SendChar
;;;1707       TX_8(0xB1);
000012  20b1              MOVS     r0,#0xb1
000014  f7fffffe          BL       SendChar
;;;1708       TX_8(0x62);
000018  2062              MOVS     r0,#0x62
00001a  f7fffffe          BL       SendChar
;;;1709       TX_16(screen_id);
00001e  0a20              LSRS     r0,r4,#8
000020  f7fffffe          BL       SendChar
000024  b2e0              UXTB     r0,r4
000026  f7fffffe          BL       SendChar
;;;1710       TX_16(control_id);
00002a  0a28              LSRS     r0,r5,#8
00002c  f7fffffe          BL       SendChar
000030  b2e8              UXTB     r0,r5
000032  f7fffffe          BL       SendChar
;;;1711       TX_8(channel);
000036  b2f0              UXTB     r0,r6
000038  f7fffffe          BL       SendChar
;;;1712       TX_8(show);
00003c  b2f8              UXTB     r0,r7
00003e  f7fffffe          BL       SendChar
;;;1713       END_CMD();
000042  20ff              MOVS     r0,#0xff
000044  f7fffffe          BL       SendChar
000048  20fc              MOVS     r0,#0xfc
00004a  f7fffffe          BL       SendChar
00004e  20ff              MOVS     r0,#0xff
000050  f7fffffe          BL       SendChar
000054  20ff              MOVS     r0,#0xff
000056  f7fffffe          BL       SendChar
;;;1714   }
00005a  e8bd81f0          POP      {r4-r8,pc}
;;;1715   /*! 
                          ENDP


                          AREA ||i.LockDeviceConfig||, CODE, READONLY, ALIGN=1

                  LockDeviceConfig PROC
;;;687    */
;;;688    void LockDeviceConfig(void)
000000  b510              PUSH     {r4,lr}
;;;689    {
;;;690        BEGIN_CMD();
000002  20ee              MOVS     r0,#0xee
000004  f7fffffe          BL       SendChar
;;;691        TX_8(0x09);
000008  2009              MOVS     r0,#9
00000a  f7fffffe          BL       SendChar
;;;692        TX_8(0xDE);
00000e  20de              MOVS     r0,#0xde
000010  f7fffffe          BL       SendChar
;;;693        TX_8(0xED);
000014  20ed              MOVS     r0,#0xed
000016  f7fffffe          BL       SendChar
;;;694        TX_8(0x13);
00001a  2013              MOVS     r0,#0x13
00001c  f7fffffe          BL       SendChar
;;;695        TX_8(0x31);
000020  2031              MOVS     r0,#0x31
000022  f7fffffe          BL       SendChar
;;;696        END_CMD();
000026  20ff              MOVS     r0,#0xff
000028  f7fffffe          BL       SendChar
00002c  20fc              MOVS     r0,#0xfc
00002e  f7fffffe          BL       SendChar
000032  20ff              MOVS     r0,#0xff
000034  f7fffffe          BL       SendChar
000038  20ff              MOVS     r0,#0xff
00003a  f7fffffe          BL       SendChar
;;;697    }
00003e  bd10              POP      {r4,pc}
;;;698    
                          ENDP


                          AREA ||i.PauseTimer||, CODE, READONLY, ALIGN=1

                  PauseTimer PROC
;;;1441   */
;;;1442   void PauseTimer(uint16 screen_id,uint16 control_id)
000000  b570              PUSH     {r4-r6,lr}
;;;1443   {
000002  4604              MOV      r4,r0
000004  460d              MOV      r5,r1
;;;1444       BEGIN_CMD();
000006  20ee              MOVS     r0,#0xee
000008  f7fffffe          BL       SendChar
;;;1445       TX_8(0xB1);
00000c  20b1              MOVS     r0,#0xb1
00000e  f7fffffe          BL       SendChar
;;;1446       TX_8(0x44);
000012  2044              MOVS     r0,#0x44
000014  f7fffffe          BL       SendChar
;;;1447       TX_16(screen_id);
000018  0a20              LSRS     r0,r4,#8
00001a  f7fffffe          BL       SendChar
00001e  b2e0              UXTB     r0,r4
000020  f7fffffe          BL       SendChar
;;;1448       TX_16(control_id);
000024  0a28              LSRS     r0,r5,#8
000026  f7fffffe          BL       SendChar
00002a  b2e8              UXTB     r0,r5
00002c  f7fffffe          BL       SendChar
;;;1449       END_CMD();
000030  20ff              MOVS     r0,#0xff
000032  f7fffffe          BL       SendChar
000036  20fc              MOVS     r0,#0xfc
000038  f7fffffe          BL       SendChar
00003c  20ff              MOVS     r0,#0xff
00003e  f7fffffe          BL       SendChar
000042  20ff              MOVS     r0,#0xff
000044  f7fffffe          BL       SendChar
;;;1450   }
000048  bd70              POP      {r4-r6,pc}
;;;1451   /*! 
                          ENDP


                          AREA ||i.PlayMusic||, CODE, READONLY, ALIGN=1

                  PlayMusic PROC
;;;1988   //EE 94 41 3A 2F 53 6F 75 6E 64 73 2F 7A 64 67 79 2E 6D 70 33 FF FC FF FF 
;;;1989   void PlayMusic(uint8 *buffer)
000000  b570              PUSH     {r4-r6,lr}
;;;1990   {
000002  4604              MOV      r4,r0
;;;1991       uint8 i  = 0;
000004  2500              MOVS     r5,#0
;;;1992   
;;;1993       BEGIN_CMD();
000006  20ee              MOVS     r0,#0xee
000008  f7fffffe          BL       SendChar
;;;1994       TX_8(0x94);
00000c  2094              MOVS     r0,#0x94
00000e  f7fffffe          BL       SendChar
;;;1995       if(buffer)
000012  b144              CBZ      r4,|L70.38|
;;;1996       {
;;;1997           for(i=0;i<19;++i)
000014  bf00              NOP      
000016  e004              B        |L70.34|
                  |L70.24|
;;;1998               TX_8(buffer[i]);
000018  5d60              LDRB     r0,[r4,r5]
00001a  f7fffffe          BL       SendChar
00001e  1c68              ADDS     r0,r5,#1              ;1997
000020  b2c5              UXTB     r5,r0                 ;1997
                  |L70.34|
000022  2d13              CMP      r5,#0x13              ;1997
000024  dbf8              BLT      |L70.24|
                  |L70.38|
;;;1999       }
;;;2000       TX_32(0XFFFCFFFF);
000026  20ff              MOVS     r0,#0xff
000028  f7fffffe          BL       SendChar
00002c  20fc              MOVS     r0,#0xfc
00002e  f7fffffe          BL       SendChar
000032  20ff              MOVS     r0,#0xff
000034  f7fffffe          BL       SendChar
000038  20ff              MOVS     r0,#0xff
00003a  f7fffffe          BL       SendChar
;;;2001       //END_CMD();
;;;2002   }
00003e  bd70              POP      {r4-r6,pc}
                          ENDP


                          AREA ||i.ReadRTC||, CODE, READONLY, ALIGN=1

                  ReadRTC PROC
;;;1976   */
;;;1977   void ReadRTC(void)
000000  b510              PUSH     {r4,lr}
;;;1978   {
;;;1979       BEGIN_CMD();
000002  20ee              MOVS     r0,#0xee
000004  f7fffffe          BL       SendChar
;;;1980       TX_8(0x82);
000008  2082              MOVS     r0,#0x82
00000a  f7fffffe          BL       SendChar
;;;1981       END_CMD();
00000e  20ff              MOVS     r0,#0xff
000010  f7fffffe          BL       SendChar
000014  20fc              MOVS     r0,#0xfc
000016  f7fffffe          BL       SendChar
00001a  20ff              MOVS     r0,#0xff
00001c  f7fffffe          BL       SendChar
000020  20ff              MOVS     r0,#0xff
000022  f7fffffe          BL       SendChar
;;;1982   }
000026  bd10              POP      {r4,pc}
;;;1983   
                          ENDP


                          AREA ||i.ReadUserFlash||, CODE, READONLY, ALIGN=1

                  ReadUserFlash PROC
;;;812    */
;;;813    void ReadUserFlash(uint32 startAddress,uint16 length)
000000  b570              PUSH     {r4-r6,lr}
;;;814    {
000002  4604              MOV      r4,r0
000004  460d              MOV      r5,r1
;;;815        BEGIN_CMD();
000006  20ee              MOVS     r0,#0xee
000008  f7fffffe          BL       SendChar
;;;816        TX_8(0x88);
00000c  2088              MOVS     r0,#0x88
00000e  f7fffffe          BL       SendChar
;;;817        TX_32(startAddress);
000012  0e20              LSRS     r0,r4,#24
000014  f7fffffe          BL       SendChar
000018  f3c44007          UBFX     r0,r4,#16,#8
00001c  f7fffffe          BL       SendChar
000020  f3c42007          UBFX     r0,r4,#8,#8
000024  f7fffffe          BL       SendChar
000028  b2e0              UXTB     r0,r4
00002a  f7fffffe          BL       SendChar
;;;818        TX_16(length);
00002e  0a28              LSRS     r0,r5,#8
000030  f7fffffe          BL       SendChar
000034  b2e8              UXTB     r0,r5
000036  f7fffffe          BL       SendChar
;;;819        END_CMD();
00003a  20ff              MOVS     r0,#0xff
00003c  f7fffffe          BL       SendChar
000040  20fc              MOVS     r0,#0xfc
000042  f7fffffe          BL       SendChar
000046  20ff              MOVS     r0,#0xff
000048  f7fffffe          BL       SendChar
00004c  20ff              MOVS     r0,#0xff
00004e  f7fffffe          BL       SendChar
;;;820    }
000052  bd70              POP      {r4-r6,pc}
;;;821    /*! 
                          ENDP


                          AREA ||i.Record_Add||, CODE, READONLY, ALIGN=1

                  Record_Add PROC
;;;1917   */
;;;1918   void Record_Add(uint16 screen_id,uint16 control_id,uint8 *record)
000000  b570              PUSH     {r4-r6,lr}
;;;1919   {
000002  4604              MOV      r4,r0
000004  460d              MOV      r5,r1
000006  4616              MOV      r6,r2
;;;1920       BEGIN_CMD();
000008  20ee              MOVS     r0,#0xee
00000a  f7fffffe          BL       SendChar
;;;1921       TX_8(0xB1);
00000e  20b1              MOVS     r0,#0xb1
000010  f7fffffe          BL       SendChar
;;;1922       TX_8(0x52);
000014  2052              MOVS     r0,#0x52
000016  f7fffffe          BL       SendChar
;;;1923       TX_16(screen_id);
00001a  0a20              LSRS     r0,r4,#8
00001c  f7fffffe          BL       SendChar
000020  b2e0              UXTB     r0,r4
000022  f7fffffe          BL       SendChar
;;;1924       TX_16(control_id);
000026  0a28              LSRS     r0,r5,#8
000028  f7fffffe          BL       SendChar
00002c  b2e8              UXTB     r0,r5
00002e  f7fffffe          BL       SendChar
;;;1925   
;;;1926       SendStrings(record);
000032  4630              MOV      r0,r6
000034  f7fffffe          BL       SendStrings
;;;1927   
;;;1928       END_CMD();
000038  20ff              MOVS     r0,#0xff
00003a  f7fffffe          BL       SendChar
00003e  20fc              MOVS     r0,#0xfc
000040  f7fffffe          BL       SendChar
000044  20ff              MOVS     r0,#0xff
000046  f7fffffe          BL       SendChar
00004a  20ff              MOVS     r0,#0xff
00004c  f7fffffe          BL       SendChar
;;;1929   }
000050  bd70              POP      {r4-r6,pc}
;;;1930   /*! 
                          ENDP


                          AREA ||i.Record_Clear||, CODE, READONLY, ALIGN=1

                  Record_Clear PROC
;;;1934   */
;;;1935   void Record_Clear(uint16 screen_id,uint16 control_id)
000000  b570              PUSH     {r4-r6,lr}
;;;1936   {
000002  4604              MOV      r4,r0
000004  460d              MOV      r5,r1
;;;1937       BEGIN_CMD();
000006  20ee              MOVS     r0,#0xee
000008  f7fffffe          BL       SendChar
;;;1938       TX_8(0xB1);
00000c  20b1              MOVS     r0,#0xb1
00000e  f7fffffe          BL       SendChar
;;;1939       TX_8(0x53);
000012  2053              MOVS     r0,#0x53
000014  f7fffffe          BL       SendChar
;;;1940       TX_16(screen_id);
000018  0a20              LSRS     r0,r4,#8
00001a  f7fffffe          BL       SendChar
00001e  b2e0              UXTB     r0,r4
000020  f7fffffe          BL       SendChar
;;;1941       TX_16(control_id);
000024  0a28              LSRS     r0,r5,#8
000026  f7fffffe          BL       SendChar
00002a  b2e8              UXTB     r0,r5
00002c  f7fffffe          BL       SendChar
;;;1942       END_CMD();
000030  20ff              MOVS     r0,#0xff
000032  f7fffffe          BL       SendChar
000036  20fc              MOVS     r0,#0xfc
000038  f7fffffe          BL       SendChar
00003c  20ff              MOVS     r0,#0xff
00003e  f7fffffe          BL       SendChar
000042  20ff              MOVS     r0,#0xff
000044  f7fffffe          BL       SendChar
;;;1943   }
000048  bd70              POP      {r4-r6,pc}
;;;1944   /*! 
                          ENDP


                          AREA ||i.Record_GetCount||, CODE, READONLY, ALIGN=1

                  Record_GetCount PROC
;;;1964   */
;;;1965   void Record_GetCount(uint16 screen_id,uint16 control_id)
000000  b570              PUSH     {r4-r6,lr}
;;;1966   {
000002  4604              MOV      r4,r0
000004  460d              MOV      r5,r1
;;;1967       BEGIN_CMD();
000006  20ee              MOVS     r0,#0xee
000008  f7fffffe          BL       SendChar
;;;1968       TX_8(0xB1);
00000c  20b1              MOVS     r0,#0xb1
00000e  f7fffffe          BL       SendChar
;;;1969       TX_8(0x55);
000012  2055              MOVS     r0,#0x55
000014  f7fffffe          BL       SendChar
;;;1970       TX_16(screen_id);
000018  0a20              LSRS     r0,r4,#8
00001a  f7fffffe          BL       SendChar
00001e  b2e0              UXTB     r0,r4
000020  f7fffffe          BL       SendChar
;;;1971       TX_16(control_id);
000024  0a28              LSRS     r0,r5,#8
000026  f7fffffe          BL       SendChar
00002a  b2e8              UXTB     r0,r5
00002c  f7fffffe          BL       SendChar
;;;1972       END_CMD();
000030  20ff              MOVS     r0,#0xff
000032  f7fffffe          BL       SendChar
000036  20fc              MOVS     r0,#0xfc
000038  f7fffffe          BL       SendChar
00003c  20ff              MOVS     r0,#0xff
00003e  f7fffffe          BL       SendChar
000042  20ff              MOVS     r0,#0xff
000044  f7fffffe          BL       SendChar
;;;1973   }
000048  bd70              POP      {r4-r6,pc}
;;;1974   /*! 
                          ENDP


                          AREA ||i.Record_ResetEvent||, CODE, READONLY, ALIGN=1

                  Record_ResetEvent PROC
;;;1892   */
;;;1893   void Record_ResetEvent(uint16 screen_id,uint16 control_id,uint16 value,uint8 *time)
000000  e92d41f0          PUSH     {r4-r8,lr}
;;;1894   {
000004  4604              MOV      r4,r0
000006  460d              MOV      r5,r1
000008  4616              MOV      r6,r2
00000a  461f              MOV      r7,r3
;;;1895       uint8 i  = 0;
00000c  f04f0800          MOV      r8,#0
;;;1896   
;;;1897       BEGIN_CMD();
000010  20ee              MOVS     r0,#0xee
000012  f7fffffe          BL       SendChar
;;;1898       TX_8(0xB1);
000016  20b1              MOVS     r0,#0xb1
000018  f7fffffe          BL       SendChar
;;;1899       TX_8(0x51);
00001c  2051              MOVS     r0,#0x51
00001e  f7fffffe          BL       SendChar
;;;1900       TX_16(screen_id);
000022  0a20              LSRS     r0,r4,#8
000024  f7fffffe          BL       SendChar
000028  b2e0              UXTB     r0,r4
00002a  f7fffffe          BL       SendChar
;;;1901       TX_16(control_id);
00002e  0a28              LSRS     r0,r5,#8
000030  f7fffffe          BL       SendChar
000034  b2e8              UXTB     r0,r5
000036  f7fffffe          BL       SendChar
;;;1902       TX_16(value);
00003a  0a30              LSRS     r0,r6,#8
00003c  f7fffffe          BL       SendChar
000040  b2f0              UXTB     r0,r6
000042  f7fffffe          BL       SendChar
;;;1903   
;;;1904       if(time)
000046  b167              CBZ      r7,|L76.98|
;;;1905       {
;;;1906           for(i=0;i<7;++i)
000048  bf00              NOP      
00004a  e007              B        |L76.92|
                  |L76.76|
;;;1907               TX_8(time[i]);
00004c  f8170008          LDRB     r0,[r7,r8]
000050  f7fffffe          BL       SendChar
000054  f1080001          ADD      r0,r8,#1              ;1906
000058  f00008ff          AND      r8,r0,#0xff           ;1906
                  |L76.92|
00005c  f1b80f07          CMP      r8,#7                 ;1906
000060  dbf4              BLT      |L76.76|
                  |L76.98|
;;;1908       }
;;;1909   
;;;1910       END_CMD();
000062  20ff              MOVS     r0,#0xff
000064  f7fffffe          BL       SendChar
000068  20fc              MOVS     r0,#0xfc
00006a  f7fffffe          BL       SendChar
00006e  20ff              MOVS     r0,#0xff
000070  f7fffffe          BL       SendChar
000074  20ff              MOVS     r0,#0xff
000076  f7fffffe          BL       SendChar
;;;1911   }
00007a  e8bd81f0          POP      {r4-r8,pc}
;;;1912   /*! 
                          ENDP


                          AREA ||i.Record_SetEvent||, CODE, READONLY, ALIGN=1

                  Record_SetEvent PROC
;;;1866   */
;;;1867   void Record_SetEvent(uint16 screen_id,uint16 control_id,uint16 value,uint8 *time)
000000  e92d41f0          PUSH     {r4-r8,lr}
;;;1868   {
000004  4604              MOV      r4,r0
000006  460d              MOV      r5,r1
000008  4616              MOV      r6,r2
00000a  461f              MOV      r7,r3
;;;1869       uint8 i  = 0;
00000c  f04f0800          MOV      r8,#0
;;;1870   
;;;1871       BEGIN_CMD();
000010  20ee              MOVS     r0,#0xee
000012  f7fffffe          BL       SendChar
;;;1872       TX_8(0xB1);
000016  20b1              MOVS     r0,#0xb1
000018  f7fffffe          BL       SendChar
;;;1873       TX_8(0x50);
00001c  2050              MOVS     r0,#0x50
00001e  f7fffffe          BL       SendChar
;;;1874       TX_16(screen_id);
000022  0a20              LSRS     r0,r4,#8
000024  f7fffffe          BL       SendChar
000028  b2e0              UXTB     r0,r4
00002a  f7fffffe          BL       SendChar
;;;1875       TX_16(control_id);
00002e  0a28              LSRS     r0,r5,#8
000030  f7fffffe          BL       SendChar
000034  b2e8              UXTB     r0,r5
000036  f7fffffe          BL       SendChar
;;;1876       TX_16(value);
00003a  0a30              LSRS     r0,r6,#8
00003c  f7fffffe          BL       SendChar
000040  b2f0              UXTB     r0,r6
000042  f7fffffe          BL       SendChar
;;;1877   
;;;1878       if(time)
000046  b167              CBZ      r7,|L77.98|
;;;1879       {
;;;1880           for(i=0;i<7;++i)
000048  bf00              NOP      
00004a  e007              B        |L77.92|
                  |L77.76|
;;;1881               TX_8(time[i]);
00004c  f8170008          LDRB     r0,[r7,r8]
000050  f7fffffe          BL       SendChar
000054  f1080001          ADD      r0,r8,#1              ;1880
000058  f00008ff          AND      r8,r0,#0xff           ;1880
                  |L77.92|
00005c  f1b80f07          CMP      r8,#7                 ;1880
000060  dbf4              BLT      |L77.76|
                  |L77.98|
;;;1882       }
;;;1883   
;;;1884       END_CMD();
000062  20ff              MOVS     r0,#0xff
000064  f7fffffe          BL       SendChar
000068  20fc              MOVS     r0,#0xfc
00006a  f7fffffe          BL       SendChar
00006e  20ff              MOVS     r0,#0xff
000070  f7fffffe          BL       SendChar
000074  20ff              MOVS     r0,#0xff
000076  f7fffffe          BL       SendChar
;;;1885   }
00007a  e8bd81f0          POP      {r4-r8,pc}
;;;1886   /*! 
                          ENDP


                          AREA ||i.Record_SetOffset||, CODE, READONLY, ALIGN=1

                  Record_SetOffset PROC
;;;1949   */
;;;1950   void Record_SetOffset(uint16 screen_id,uint16 control_id,uint16 offset)
000000  b570              PUSH     {r4-r6,lr}
;;;1951   {
000002  4604              MOV      r4,r0
000004  460d              MOV      r5,r1
000006  4616              MOV      r6,r2
;;;1952       BEGIN_CMD();
000008  20ee              MOVS     r0,#0xee
00000a  f7fffffe          BL       SendChar
;;;1953       TX_8(0xB1);
00000e  20b1              MOVS     r0,#0xb1
000010  f7fffffe          BL       SendChar
;;;1954       TX_8(0x54);
000014  2054              MOVS     r0,#0x54
000016  f7fffffe          BL       SendChar
;;;1955       TX_16(screen_id);
00001a  0a20              LSRS     r0,r4,#8
00001c  f7fffffe          BL       SendChar
000020  b2e0              UXTB     r0,r4
000022  f7fffffe          BL       SendChar
;;;1956       TX_16(control_id);
000026  0a28              LSRS     r0,r5,#8
000028  f7fffffe          BL       SendChar
00002c  b2e8              UXTB     r0,r5
00002e  f7fffffe          BL       SendChar
;;;1957       TX_16(offset);
000032  0a30              LSRS     r0,r6,#8
000034  f7fffffe          BL       SendChar
000038  b2f0              UXTB     r0,r6
00003a  f7fffffe          BL       SendChar
;;;1958       END_CMD();
00003e  20ff              MOVS     r0,#0xff
000040  f7fffffe          BL       SendChar
000044  20fc              MOVS     r0,#0xfc
000046  f7fffffe          BL       SendChar
00004a  20ff              MOVS     r0,#0xff
00004c  f7fffffe          BL       SendChar
000050  20ff              MOVS     r0,#0xff
000052  f7fffffe          BL       SendChar
;;;1959   }
000056  bd70              POP      {r4-r6,pc}
;;;1960   /*! 
                          ENDP


                          AREA ||i.SeTimer||, CODE, READONLY, ALIGN=1

                  SeTimer PROC
;;;1398   */
;;;1399   void SeTimer(uint16 screen_id,uint16 control_id,uint32 timeout)
000000  b570              PUSH     {r4-r6,lr}
;;;1400   {
000002  4605              MOV      r5,r0
000004  460e              MOV      r6,r1
000006  4614              MOV      r4,r2
;;;1401       BEGIN_CMD();
000008  20ee              MOVS     r0,#0xee
00000a  f7fffffe          BL       SendChar
;;;1402       TX_8(0xB1);
00000e  20b1              MOVS     r0,#0xb1
000010  f7fffffe          BL       SendChar
;;;1403       TX_8(0x40);
000014  2040              MOVS     r0,#0x40
000016  f7fffffe          BL       SendChar
;;;1404       TX_16(screen_id);
00001a  0a28              LSRS     r0,r5,#8
00001c  f7fffffe          BL       SendChar
000020  b2e8              UXTB     r0,r5
000022  f7fffffe          BL       SendChar
;;;1405       TX_16(control_id);
000026  0a30              LSRS     r0,r6,#8
000028  f7fffffe          BL       SendChar
00002c  b2f0              UXTB     r0,r6
00002e  f7fffffe          BL       SendChar
;;;1406       TX_32(timeout);
000032  0e20              LSRS     r0,r4,#24
000034  f7fffffe          BL       SendChar
000038  f3c44007          UBFX     r0,r4,#16,#8
00003c  f7fffffe          BL       SendChar
000040  f3c42007          UBFX     r0,r4,#8,#8
000044  f7fffffe          BL       SendChar
000048  b2e0              UXTB     r0,r4
00004a  f7fffffe          BL       SendChar
;;;1407       END_CMD();
00004e  20ff              MOVS     r0,#0xff
000050  f7fffffe          BL       SendChar
000054  20fc              MOVS     r0,#0xfc
000056  f7fffffe          BL       SendChar
00005a  20ff              MOVS     r0,#0xff
00005c  f7fffffe          BL       SendChar
000060  20ff              MOVS     r0,#0xff
000062  f7fffffe          BL       SendChar
;;;1408   }
000066  bd70              POP      {r4-r6,pc}
;;;1409   /*! 
                          ENDP


                          AREA ||i.SendNU16||, CODE, READONLY, ALIGN=1

                  SendNU16 PROC
;;;135    */
;;;136    void SendNU16(uint16 *pData,uint16 nDataLen)
000000  b570              PUSH     {r4-r6,lr}
;;;137    {
000002  4605              MOV      r5,r0
000004  460e              MOV      r6,r1
;;;138        uint16 i = 0;
000006  2400              MOVS     r4,#0
;;;139        for (;i<nDataLen;++i)
000008  e00a              B        |L80.32|
                  |L80.10|
;;;140        {
;;;141            TX_16(pData[i]);
00000a  f8351014          LDRH     r1,[r5,r4,LSL #1]
00000e  0a08              LSRS     r0,r1,#8
000010  f7fffffe          BL       SendChar
000014  f8150014          LDRB     r0,[r5,r4,LSL #1]
000018  f7fffffe          BL       SendChar
00001c  1c60              ADDS     r0,r4,#1              ;139
00001e  b284              UXTH     r4,r0                 ;139
                  |L80.32|
000020  42b4              CMP      r4,r6                 ;139
000022  dbf2              BLT      |L80.10|
;;;142        }
;;;143    }
000024  bd70              POP      {r4-r6,pc}
;;;144    /*! 
                          ENDP


                          AREA ||i.SendNU8||, CODE, READONLY, ALIGN=1

                  SendNU8 PROC
;;;123    */
;;;124    void SendNU8(uint8 *pData,uint16 nDataLen)
000000  b570              PUSH     {r4-r6,lr}
;;;125    {
000002  4605              MOV      r5,r0
000004  460e              MOV      r6,r1
;;;126        uint16 i = 0;
000006  2400              MOVS     r4,#0
;;;127        for (;i<nDataLen;++i)
000008  e004              B        |L81.20|
                  |L81.10|
;;;128        {
;;;129            TX_8(pData[i]);
00000a  5d28              LDRB     r0,[r5,r4]
00000c  f7fffffe          BL       SendChar
000010  1c60              ADDS     r0,r4,#1              ;127
000012  b284              UXTH     r4,r0                 ;127
                  |L81.20|
000014  42b4              CMP      r4,r6                 ;127
000016  dbf8              BLT      |L81.10|
;;;130        }
;;;131    }
000018  bd70              POP      {r4-r6,pc}
;;;132    /*! 
                          ENDP


                          AREA ||i.SendStrings||, CODE, READONLY, ALIGN=1

                  SendStrings PROC
;;;111    */
;;;112    void SendStrings(uchar *str)
000000  b510              PUSH     {r4,lr}
;;;113    {
000002  4604              MOV      r4,r0
;;;114        while(*str)
000004  e003              B        |L82.14|
                  |L82.6|
;;;115        {
;;;116            TX_8(*str);
000006  7820              LDRB     r0,[r4,#0]
000008  f7fffffe          BL       SendChar
;;;117            str++;
00000c  1c64              ADDS     r4,r4,#1
                  |L82.14|
00000e  7820              LDRB     r0,[r4,#0]            ;114
000010  2800              CMP      r0,#0                 ;114
000012  d1f8              BNE      |L82.6|
;;;118        }
;;;119    }
000014  bd10              POP      {r4,pc}
;;;120    /*! 
                          ENDP


                          AREA ||i.SetBackLight||, CODE, READONLY, ALIGN=1

                  SetBackLight PROC
;;;610    */
;;;611    void SetBackLight(uint8 light_level)
000000  b510              PUSH     {r4,lr}
;;;612    {
000002  4604              MOV      r4,r0
;;;613        BEGIN_CMD();
000004  20ee              MOVS     r0,#0xee
000006  f7fffffe          BL       SendChar
;;;614        TX_8(0x60);
00000a  2060              MOVS     r0,#0x60
00000c  f7fffffe          BL       SendChar
;;;615        TX_8(light_level);
000010  b2e0              UXTB     r0,r4
000012  f7fffffe          BL       SendChar
;;;616        END_CMD();
000016  20ff              MOVS     r0,#0xff
000018  f7fffffe          BL       SendChar
00001c  20fc              MOVS     r0,#0xfc
00001e  f7fffffe          BL       SendChar
000022  20ff              MOVS     r0,#0xff
000024  f7fffffe          BL       SendChar
000028  20ff              MOVS     r0,#0xff
00002a  f7fffffe          BL       SendChar
;;;617    }
00002e  bd10              POP      {r4,pc}
;;;618    
                          ENDP


                          AREA ||i.SetBcolor||, CODE, READONLY, ALIGN=1

                  SetBcolor PROC
;;;168    */
;;;169    void SetBcolor(uint16 color)
000000  b510              PUSH     {r4,lr}
;;;170    {
000002  4604              MOV      r4,r0
;;;171        BEGIN_CMD();
000004  20ee              MOVS     r0,#0xee
000006  f7fffffe          BL       SendChar
;;;172        TX_8(0x42);
00000a  2042              MOVS     r0,#0x42
00000c  f7fffffe          BL       SendChar
;;;173        TX_16(color);
000010  0a20              LSRS     r0,r4,#8
000012  f7fffffe          BL       SendChar
000016  b2e0              UXTB     r0,r4
000018  f7fffffe          BL       SendChar
;;;174        END_CMD();
00001c  20ff              MOVS     r0,#0xff
00001e  f7fffffe          BL       SendChar
000022  20fc              MOVS     r0,#0xfc
000024  f7fffffe          BL       SendChar
000028  20ff              MOVS     r0,#0xff
00002a  f7fffffe          BL       SendChar
00002e  20ff              MOVS     r0,#0xff
000030  f7fffffe          BL       SendChar
;;;175    }
000034  bd10              POP      {r4,pc}
;;;176    /*! 
                          ENDP


                          AREA ||i.SetButtonValue||, CODE, READONLY, ALIGN=1

                  SetButtonValue PROC
;;;912    */
;;;913    void SetButtonValue(uint16 screen_id,uint16 control_id,uchar state)
000000  b570              PUSH     {r4-r6,lr}
;;;914    {
000002  4604              MOV      r4,r0
000004  460d              MOV      r5,r1
000006  4616              MOV      r6,r2
;;;915        BEGIN_CMD();
000008  20ee              MOVS     r0,#0xee
00000a  f7fffffe          BL       SendChar
;;;916        TX_8(0xB1);
00000e  20b1              MOVS     r0,#0xb1
000010  f7fffffe          BL       SendChar
;;;917        TX_8(0x10);
000014  2010              MOVS     r0,#0x10
000016  f7fffffe          BL       SendChar
;;;918        TX_16(screen_id);
00001a  0a20              LSRS     r0,r4,#8
00001c  f7fffffe          BL       SendChar
000020  b2e0              UXTB     r0,r4
000022  f7fffffe          BL       SendChar
;;;919        TX_16(control_id);
000026  0a28              LSRS     r0,r5,#8
000028  f7fffffe          BL       SendChar
00002c  b2e8              UXTB     r0,r5
00002e  f7fffffe          BL       SendChar
;;;920        TX_8(state);
000032  b2f0              UXTB     r0,r6
000034  f7fffffe          BL       SendChar
;;;921        END_CMD();
000038  20ff              MOVS     r0,#0xff
00003a  f7fffffe          BL       SendChar
00003e  20fc              MOVS     r0,#0xfc
000040  f7fffffe          BL       SendChar
000044  20ff              MOVS     r0,#0xff
000046  f7fffffe          BL       SendChar
00004a  20ff              MOVS     r0,#0xff
00004c  f7fffffe          BL       SendChar
;;;922    }
000050  bd70              POP      {r4-r6,pc}
;;;923    /*! 
                          ENDP


                          AREA ||i.SetBuzzer||, CODE, READONLY, ALIGN=1

                  SetBuzzer PROC
;;;622    */
;;;623    void SetBuzzer(uint8 time)
000000  b510              PUSH     {r4,lr}
;;;624    {
000002  4604              MOV      r4,r0
;;;625        BEGIN_CMD();
000004  20ee              MOVS     r0,#0xee
000006  f7fffffe          BL       SendChar
;;;626        TX_8(0x61);
00000a  2061              MOVS     r0,#0x61
00000c  f7fffffe          BL       SendChar
;;;627        TX_8(time);
000010  b2e0              UXTB     r0,r4
000012  f7fffffe          BL       SendChar
;;;628        END_CMD();
000016  20ff              MOVS     r0,#0xff
000018  f7fffffe          BL       SendChar
00001c  20fc              MOVS     r0,#0xfc
00001e  f7fffffe          BL       SendChar
000022  20ff              MOVS     r0,#0xff
000024  f7fffffe          BL       SendChar
000028  20ff              MOVS     r0,#0xff
00002a  f7fffffe          BL       SendChar
;;;629    }
00002e  bd10              POP      {r4,pc}
;;;630    
                          ENDP


                          AREA ||i.SetCommBps||, CODE, READONLY, ALIGN=1

                  SetCommBps PROC
;;;717    */
;;;718    void SetCommBps(uint8 option)
000000  b510              PUSH     {r4,lr}
;;;719    {
000002  4604              MOV      r4,r0
;;;720        BEGIN_CMD();
000004  20ee              MOVS     r0,#0xee
000006  f7fffffe          BL       SendChar
;;;721        TX_8(0xA0);
00000a  20a0              MOVS     r0,#0xa0
00000c  f7fffffe          BL       SendChar
;;;722        TX_8(option);
000010  b2e0              UXTB     r0,r4
000012  f7fffffe          BL       SendChar
;;;723        END_CMD();
000016  20ff              MOVS     r0,#0xff
000018  f7fffffe          BL       SendChar
00001c  20fc              MOVS     r0,#0xfc
00001e  f7fffffe          BL       SendChar
000022  20ff              MOVS     r0,#0xff
000024  f7fffffe          BL       SendChar
000028  20ff              MOVS     r0,#0xff
00002a  f7fffffe          BL       SendChar
;;;724    }
00002e  bd10              POP      {r4,pc}
;;;725    /*! 
                          ENDP


                          AREA ||i.SetControlBackColor||, CODE, READONLY, ALIGN=1

                  SetControlBackColor PROC
;;;1457   */
;;;1458   void SetControlBackColor(uint16 screen_id,uint16 control_id,uint16 color)
000000  b570              PUSH     {r4-r6,lr}
;;;1459   {
000002  4604              MOV      r4,r0
000004  460d              MOV      r5,r1
000006  4616              MOV      r6,r2
;;;1460       BEGIN_CMD();
000008  20ee              MOVS     r0,#0xee
00000a  f7fffffe          BL       SendChar
;;;1461       TX_8(0xB1);
00000e  20b1              MOVS     r0,#0xb1
000010  f7fffffe          BL       SendChar
;;;1462       TX_8(0x18);
000014  2018              MOVS     r0,#0x18
000016  f7fffffe          BL       SendChar
;;;1463       TX_16(screen_id);
00001a  0a20              LSRS     r0,r4,#8
00001c  f7fffffe          BL       SendChar
000020  b2e0              UXTB     r0,r4
000022  f7fffffe          BL       SendChar
;;;1464       TX_16(control_id);
000026  0a28              LSRS     r0,r5,#8
000028  f7fffffe          BL       SendChar
00002c  b2e8              UXTB     r0,r5
00002e  f7fffffe          BL       SendChar
;;;1465       TX_16(color);
000032  0a30              LSRS     r0,r6,#8
000034  f7fffffe          BL       SendChar
000038  b2f0              UXTB     r0,r6
00003a  f7fffffe          BL       SendChar
;;;1466       END_CMD();
00003e  20ff              MOVS     r0,#0xff
000040  f7fffffe          BL       SendChar
000044  20fc              MOVS     r0,#0xfc
000046  f7fffffe          BL       SendChar
00004a  20ff              MOVS     r0,#0xff
00004c  f7fffffe          BL       SendChar
000050  20ff              MOVS     r0,#0xff
000052  f7fffffe          BL       SendChar
;;;1467   }
000056  bd70              POP      {r4-r6,pc}
;;;1468   /*! 
                          ENDP


                          AREA ||i.SetControlEnable||, CODE, READONLY, ALIGN=1

                  SetControlEnable PROC
;;;896    */
;;;897    void SetControlEnable(uint16 screen_id,uint16 control_id,uint8 enable)
000000  b570              PUSH     {r4-r6,lr}
;;;898    {
000002  4604              MOV      r4,r0
000004  460d              MOV      r5,r1
000006  4616              MOV      r6,r2
;;;899        BEGIN_CMD();
000008  20ee              MOVS     r0,#0xee
00000a  f7fffffe          BL       SendChar
;;;900        TX_8(0xB1);
00000e  20b1              MOVS     r0,#0xb1
000010  f7fffffe          BL       SendChar
;;;901        TX_8(0x04);
000014  2004              MOVS     r0,#4
000016  f7fffffe          BL       SendChar
;;;902        TX_16(screen_id);
00001a  0a20              LSRS     r0,r4,#8
00001c  f7fffffe          BL       SendChar
000020  b2e0              UXTB     r0,r4
000022  f7fffffe          BL       SendChar
;;;903        TX_16(control_id);
000026  0a28              LSRS     r0,r5,#8
000028  f7fffffe          BL       SendChar
00002c  b2e8              UXTB     r0,r5
00002e  f7fffffe          BL       SendChar
;;;904        TX_8(enable);
000032  b2f0              UXTB     r0,r6
000034  f7fffffe          BL       SendChar
;;;905        END_CMD();
000038  20ff              MOVS     r0,#0xff
00003a  f7fffffe          BL       SendChar
00003e  20fc              MOVS     r0,#0xfc
000040  f7fffffe          BL       SendChar
000044  20ff              MOVS     r0,#0xff
000046  f7fffffe          BL       SendChar
00004a  20ff              MOVS     r0,#0xff
00004c  f7fffffe          BL       SendChar
;;;906    }
000050  bd70              POP      {r4-r6,pc}
;;;907    /*! 
                          ENDP


                          AREA ||i.SetControlFocus||, CODE, READONLY, ALIGN=1

                  SetControlFocus PROC
;;;864    */
;;;865    void SetControlFocus(uint16 screen_id,uint16 control_id,uint8 focus)
000000  b570              PUSH     {r4-r6,lr}
;;;866    {
000002  4604              MOV      r4,r0
000004  460d              MOV      r5,r1
000006  4616              MOV      r6,r2
;;;867        BEGIN_CMD();
000008  20ee              MOVS     r0,#0xee
00000a  f7fffffe          BL       SendChar
;;;868        TX_8(0xB1);
00000e  20b1              MOVS     r0,#0xb1
000010  f7fffffe          BL       SendChar
;;;869        TX_8(0x02);
000014  2002              MOVS     r0,#2
000016  f7fffffe          BL       SendChar
;;;870        TX_16(screen_id);
00001a  0a20              LSRS     r0,r4,#8
00001c  f7fffffe          BL       SendChar
000020  b2e0              UXTB     r0,r4
000022  f7fffffe          BL       SendChar
;;;871        TX_16(control_id);
000026  0a28              LSRS     r0,r5,#8
000028  f7fffffe          BL       SendChar
00002c  b2e8              UXTB     r0,r5
00002e  f7fffffe          BL       SendChar
;;;872        TX_8(focus);
000032  b2f0              UXTB     r0,r6
000034  f7fffffe          BL       SendChar
;;;873        END_CMD();
000038  20ff              MOVS     r0,#0xff
00003a  f7fffffe          BL       SendChar
00003e  20fc              MOVS     r0,#0xfc
000040  f7fffffe          BL       SendChar
000044  20ff              MOVS     r0,#0xff
000046  f7fffffe          BL       SendChar
00004a  20ff              MOVS     r0,#0xff
00004c  f7fffffe          BL       SendChar
;;;874    }
000050  bd70              POP      {r4-r6,pc}
;;;875    /*! 
                          ENDP


                          AREA ||i.SetControlForeColor||, CODE, READONLY, ALIGN=1

                  SetControlForeColor PROC
;;;1474   */
;;;1475   void SetControlForeColor(uint16 screen_id,uint16 control_id,uint16 color)
000000  b570              PUSH     {r4-r6,lr}
;;;1476   {
000002  4604              MOV      r4,r0
000004  460d              MOV      r5,r1
000006  4616              MOV      r6,r2
;;;1477       BEGIN_CMD();
000008  20ee              MOVS     r0,#0xee
00000a  f7fffffe          BL       SendChar
;;;1478       TX_8(0xB1);
00000e  20b1              MOVS     r0,#0xb1
000010  f7fffffe          BL       SendChar
;;;1479       TX_8(0x19);
000014  2019              MOVS     r0,#0x19
000016  f7fffffe          BL       SendChar
;;;1480       TX_16(screen_id);
00001a  0a20              LSRS     r0,r4,#8
00001c  f7fffffe          BL       SendChar
000020  b2e0              UXTB     r0,r4
000022  f7fffffe          BL       SendChar
;;;1481       TX_16(control_id);
000026  0a28              LSRS     r0,r5,#8
000028  f7fffffe          BL       SendChar
00002c  b2e8              UXTB     r0,r5
00002e  f7fffffe          BL       SendChar
;;;1482       TX_16(color);
000032  0a30              LSRS     r0,r6,#8
000034  f7fffffe          BL       SendChar
000038  b2f0              UXTB     r0,r6
00003a  f7fffffe          BL       SendChar
;;;1483       END_CMD();
00003e  20ff              MOVS     r0,#0xff
000040  f7fffffe          BL       SendChar
000044  20fc              MOVS     r0,#0xfc
000046  f7fffffe          BL       SendChar
00004a  20ff              MOVS     r0,#0xff
00004c  f7fffffe          BL       SendChar
000050  20ff              MOVS     r0,#0xff
000052  f7fffffe          BL       SendChar
;;;1484   }
000056  bd70              POP      {r4-r6,pc}
;;;1485   /*! 
                          ENDP


                          AREA ||i.SetControlVisiable||, CODE, READONLY, ALIGN=1

                  SetControlVisiable PROC
;;;880    */
;;;881    void SetControlVisiable(uint16 screen_id,uint16 control_id,uint8 visible)
000000  b570              PUSH     {r4-r6,lr}
;;;882    {
000002  4604              MOV      r4,r0
000004  460d              MOV      r5,r1
000006  4616              MOV      r6,r2
;;;883        BEGIN_CMD();
000008  20ee              MOVS     r0,#0xee
00000a  f7fffffe          BL       SendChar
;;;884        TX_8(0xB1);
00000e  20b1              MOVS     r0,#0xb1
000010  f7fffffe          BL       SendChar
;;;885        TX_8(0x03);
000014  2003              MOVS     r0,#3
000016  f7fffffe          BL       SendChar
;;;886        TX_16(screen_id);
00001a  0a20              LSRS     r0,r4,#8
00001c  f7fffffe          BL       SendChar
000020  b2e0              UXTB     r0,r4
000022  f7fffffe          BL       SendChar
;;;887        TX_16(control_id);
000026  0a28              LSRS     r0,r5,#8
000028  f7fffffe          BL       SendChar
00002c  b2e8              UXTB     r0,r5
00002e  f7fffffe          BL       SendChar
;;;888        TX_8(visible);
000032  b2f0              UXTB     r0,r6
000034  f7fffffe          BL       SendChar
;;;889        END_CMD();
000038  20ff              MOVS     r0,#0xff
00003a  f7fffffe          BL       SendChar
00003e  20fc              MOVS     r0,#0xfc
000040  f7fffffe          BL       SendChar
000044  20ff              MOVS     r0,#0xff
000046  f7fffffe          BL       SendChar
00004a  20ff              MOVS     r0,#0xff
00004c  f7fffffe          BL       SendChar
;;;890    }
000050  bd70              POP      {r4-r6,pc}
;;;891    /*! 
                          ENDP


                          AREA ||i.SetFcolor||, CODE, READONLY, ALIGN=1

                  SetFcolor PROC
;;;157    */
;;;158    void SetFcolor(uint16 color)
000000  b510              PUSH     {r4,lr}
;;;159    {
000002  4604              MOV      r4,r0
;;;160        BEGIN_CMD();
000004  20ee              MOVS     r0,#0xee
000006  f7fffffe          BL       SendChar
;;;161        TX_8(0x41);
00000a  2041              MOVS     r0,#0x41
00000c  f7fffffe          BL       SendChar
;;;162        TX_16(color);
000010  0a20              LSRS     r0,r4,#8
000012  f7fffffe          BL       SendChar
000016  b2e0              UXTB     r0,r4
000018  f7fffffe          BL       SendChar
;;;163        END_CMD();
00001c  20ff              MOVS     r0,#0xff
00001e  f7fffffe          BL       SendChar
000022  20fc              MOVS     r0,#0xfc
000024  f7fffffe          BL       SendChar
000028  20ff              MOVS     r0,#0xff
00002a  f7fffffe          BL       SendChar
00002e  20ff              MOVS     r0,#0xff
000030  f7fffffe          BL       SendChar
;;;164    }
000034  bd10              POP      {r4,pc}
;;;165    /*! 
                          ENDP


                          AREA ||i.SetFilterColor||, CODE, READONLY, ALIGN=1

                  SetFilterColor PROC
;;;230    */
;;;231    void SetFilterColor(uint16 fillcolor_dwon, uint16 fillcolor_up)
000000  b570              PUSH     {r4-r6,lr}
;;;232    {
000002  4604              MOV      r4,r0
000004  460d              MOV      r5,r1
;;;233        BEGIN_CMD();
000006  20ee              MOVS     r0,#0xee
000008  f7fffffe          BL       SendChar
;;;234        TX_8(0x44);
00000c  2044              MOVS     r0,#0x44
00000e  f7fffffe          BL       SendChar
;;;235        TX_16(fillcolor_dwon);
000012  0a20              LSRS     r0,r4,#8
000014  f7fffffe          BL       SendChar
000018  b2e0              UXTB     r0,r4
00001a  f7fffffe          BL       SendChar
;;;236        TX_16(fillcolor_up);
00001e  0a28              LSRS     r0,r5,#8
000020  f7fffffe          BL       SendChar
000024  b2e8              UXTB     r0,r5
000026  f7fffffe          BL       SendChar
;;;237        END_CMD();
00002a  20ff              MOVS     r0,#0xff
00002c  f7fffffe          BL       SendChar
000030  20fc              MOVS     r0,#0xfc
000032  f7fffffe          BL       SendChar
000036  20ff              MOVS     r0,#0xff
000038  f7fffffe          BL       SendChar
00003c  20ff              MOVS     r0,#0xff
00003e  f7fffffe          BL       SendChar
;;;238    }
000042  bd70              POP      {r4-r6,pc}
;;;239    
                          ENDP


                          AREA ||i.SetFont_Region||, CODE, READONLY, ALIGN=1

                  SetFont_Region PROC
;;;216    */
;;;217    void SetFont_Region(uint8 enable,uint16 width,uint16 height)
000000  b570              PUSH     {r4-r6,lr}
;;;218    {
000002  4606              MOV      r6,r0
000004  460c              MOV      r4,r1
000006  4615              MOV      r5,r2
;;;219        BEGIN_CMD();
000008  20ee              MOVS     r0,#0xee
00000a  f7fffffe          BL       SendChar
;;;220        TX_8(0x45);
00000e  2045              MOVS     r0,#0x45
000010  f7fffffe          BL       SendChar
;;;221        TX_8(enable);
000014  b2f0              UXTB     r0,r6
000016  f7fffffe          BL       SendChar
;;;222        TX_16(width);
00001a  0a20              LSRS     r0,r4,#8
00001c  f7fffffe          BL       SendChar
000020  b2e0              UXTB     r0,r4
000022  f7fffffe          BL       SendChar
;;;223        TX_16(height);
000026  0a28              LSRS     r0,r5,#8
000028  f7fffffe          BL       SendChar
00002c  b2e8              UXTB     r0,r5
00002e  f7fffffe          BL       SendChar
;;;224        END_CMD();
000032  20ff              MOVS     r0,#0xff
000034  f7fffffe          BL       SendChar
000038  20fc              MOVS     r0,#0xfc
00003a  f7fffffe          BL       SendChar
00003e  20ff              MOVS     r0,#0xff
000040  f7fffffe          BL       SendChar
000044  20ff              MOVS     r0,#0xff
000046  f7fffffe          BL       SendChar
;;;225    }
00004a  bd70              POP      {r4-r6,pc}
;;;226    /*! 
                          ENDP


                          AREA ||i.SetHandShake||, CODE, READONLY, ALIGN=1

                  SetHandShake PROC
;;;146    */
;;;147    void SetHandShake()
000000  b510              PUSH     {r4,lr}
;;;148    {
;;;149        BEGIN_CMD();
000002  20ee              MOVS     r0,#0xee
000004  f7fffffe          BL       SendChar
;;;150        TX_8(0x04);
000008  2004              MOVS     r0,#4
00000a  f7fffffe          BL       SendChar
;;;151        END_CMD();
00000e  20ff              MOVS     r0,#0xff
000010  f7fffffe          BL       SendChar
000014  20fc              MOVS     r0,#0xfc
000016  f7fffffe          BL       SendChar
00001a  20ff              MOVS     r0,#0xff
00001c  f7fffffe          BL       SendChar
000020  20ff              MOVS     r0,#0xff
000022  f7fffffe          BL       SendChar
;;;152    }
000026  bd10              POP      {r4,pc}
;;;153    
                          ENDP


                          AREA ||i.SetLanguage||, CODE, READONLY, ALIGN=1

                  SetLanguage PROC
;;;1530   */
;;;1531   void SetLanguage(uint8 ui_lang,uint8 sys_lang)
000000  b570              PUSH     {r4-r6,lr}
;;;1532   {
000002  4605              MOV      r5,r0
000004  460e              MOV      r6,r1
;;;1533       uint8 lang = ui_lang;
000006  462c              MOV      r4,r5
;;;1534       if(sys_lang)    lang |= 0x80;
000008  b10e              CBZ      r6,|L97.14|
00000a  f0440480          ORR      r4,r4,#0x80
                  |L97.14|
;;;1535   
;;;1536       BEGIN_CMD();
00000e  20ee              MOVS     r0,#0xee
000010  f7fffffe          BL       SendChar
;;;1537       TX_8(0xC1);
000014  20c1              MOVS     r0,#0xc1
000016  f7fffffe          BL       SendChar
;;;1538       TX_8(lang);
00001a  b2e0              UXTB     r0,r4
00001c  f7fffffe          BL       SendChar
;;;1539       TX_8(0xC1+lang);//
000020  f10401c1          ADD      r1,r4,#0xc1
000024  b2c8              UXTB     r0,r1
000026  f7fffffe          BL       SendChar
;;;1540       END_CMD();
00002a  20ff              MOVS     r0,#0xff
00002c  f7fffffe          BL       SendChar
000030  20fc              MOVS     r0,#0xfc
000032  f7fffffe          BL       SendChar
000036  20ff              MOVS     r0,#0xff
000038  f7fffffe          BL       SendChar
00003c  20ff              MOVS     r0,#0xff
00003e  f7fffffe          BL       SendChar
;;;1541   }
000042  bd70              POP      {r4-r6,pc}
;;;1542   #endif
                          ENDP


                          AREA ||i.SetMeterValue||, CODE, READONLY, ALIGN=1

                  SetMeterValue PROC
;;;1014   */
;;;1015   void SetMeterValue(uint16 screen_id,uint16 control_id,uint32 value)
000000  b570              PUSH     {r4-r6,lr}
;;;1016   {
000002  4605              MOV      r5,r0
000004  460e              MOV      r6,r1
000006  4614              MOV      r4,r2
;;;1017       BEGIN_CMD();
000008  20ee              MOVS     r0,#0xee
00000a  f7fffffe          BL       SendChar
;;;1018       TX_8(0xB1);
00000e  20b1              MOVS     r0,#0xb1
000010  f7fffffe          BL       SendChar
;;;1019       TX_8(0x10);
000014  2010              MOVS     r0,#0x10
000016  f7fffffe          BL       SendChar
;;;1020       TX_16(screen_id);
00001a  0a28              LSRS     r0,r5,#8
00001c  f7fffffe          BL       SendChar
000020  b2e8              UXTB     r0,r5
000022  f7fffffe          BL       SendChar
;;;1021       TX_16(control_id);
000026  0a30              LSRS     r0,r6,#8
000028  f7fffffe          BL       SendChar
00002c  b2f0              UXTB     r0,r6
00002e  f7fffffe          BL       SendChar
;;;1022       TX_32(value);
000032  0e20              LSRS     r0,r4,#24
000034  f7fffffe          BL       SendChar
000038  f3c44007          UBFX     r0,r4,#16,#8
00003c  f7fffffe          BL       SendChar
000040  f3c42007          UBFX     r0,r4,#8,#8
000044  f7fffffe          BL       SendChar
000048  b2e0              UXTB     r0,r4
00004a  f7fffffe          BL       SendChar
;;;1023       END_CMD();
00004e  20ff              MOVS     r0,#0xff
000050  f7fffffe          BL       SendChar
000054  20fc              MOVS     r0,#0xfc
000056  f7fffffe          BL       SendChar
00005a  20ff              MOVS     r0,#0xff
00005c  f7fffffe          BL       SendChar
000060  20ff              MOVS     r0,#0xff
000062  f7fffffe          BL       SendChar
;;;1024   }
000066  bd70              POP      {r4-r6,pc}
;;;1025   /*! 
                          ENDP


                          AREA ||i.SetPowerSaving||, CODE, READONLY, ALIGN=1

                  SetPowerSaving PROC
;;;452    */
;;;453    void SetPowerSaving(uint8 enable, uint8 bl_off_level, uint8 bl_on_level, uint8  bl_on_time)
000000  e92d41f0          PUSH     {r4-r8,lr}
;;;454    {
000004  4604              MOV      r4,r0
000006  460d              MOV      r5,r1
000008  4616              MOV      r6,r2
00000a  461f              MOV      r7,r3
;;;455        BEGIN_CMD();
00000c  20ee              MOVS     r0,#0xee
00000e  f7fffffe          BL       SendChar
;;;456        TX_8(0x77);
000012  2077              MOVS     r0,#0x77
000014  f7fffffe          BL       SendChar
;;;457        TX_8(enable);
000018  b2e0              UXTB     r0,r4
00001a  f7fffffe          BL       SendChar
;;;458        TX_8(bl_off_level);
00001e  b2e8              UXTB     r0,r5
000020  f7fffffe          BL       SendChar
;;;459        TX_8(bl_on_level);
000024  b2f0              UXTB     r0,r6
000026  f7fffffe          BL       SendChar
;;;460        TX_8(bl_on_time);
00002a  b2f8              UXTB     r0,r7
00002c  f7fffffe          BL       SendChar
;;;461        END_CMD();
000030  20ff              MOVS     r0,#0xff
000032  f7fffffe          BL       SendChar
000036  20fc              MOVS     r0,#0xfc
000038  f7fffffe          BL       SendChar
00003c  20ff              MOVS     r0,#0xff
00003e  f7fffffe          BL       SendChar
000042  20ff              MOVS     r0,#0xff
000044  f7fffffe          BL       SendChar
;;;462    }
000048  e8bd81f0          POP      {r4-r8,pc}
;;;463    /*! 
                          ENDP


                          AREA ||i.SetProgressValue||, CODE, READONLY, ALIGN=1

                  SetProgressValue PROC
;;;998    */
;;;999    void SetProgressValue(uint16 screen_id,uint16 control_id,uint32 value)
000000  b570              PUSH     {r4-r6,lr}
;;;1000   {
000002  4605              MOV      r5,r0
000004  460e              MOV      r6,r1
000006  4614              MOV      r4,r2
;;;1001       BEGIN_CMD();
000008  20ee              MOVS     r0,#0xee
00000a  f7fffffe          BL       SendChar
;;;1002       TX_8(0xB1);
00000e  20b1              MOVS     r0,#0xb1
000010  f7fffffe          BL       SendChar
;;;1003       TX_8(0x10);
000014  2010              MOVS     r0,#0x10
000016  f7fffffe          BL       SendChar
;;;1004       TX_16(screen_id);
00001a  0a28              LSRS     r0,r5,#8
00001c  f7fffffe          BL       SendChar
000020  b2e8              UXTB     r0,r5
000022  f7fffffe          BL       SendChar
;;;1005       TX_16(control_id);
000026  0a30              LSRS     r0,r6,#8
000028  f7fffffe          BL       SendChar
00002c  b2f0              UXTB     r0,r6
00002e  f7fffffe          BL       SendChar
;;;1006       TX_32(value);
000032  0e20              LSRS     r0,r4,#24
000034  f7fffffe          BL       SendChar
000038  f3c44007          UBFX     r0,r4,#16,#8
00003c  f7fffffe          BL       SendChar
000040  f3c42007          UBFX     r0,r4,#8,#8
000044  f7fffffe          BL       SendChar
000048  b2e0              UXTB     r0,r4
00004a  f7fffffe          BL       SendChar
;;;1007       END_CMD();
00004e  20ff              MOVS     r0,#0xff
000050  f7fffffe          BL       SendChar
000054  20fc              MOVS     r0,#0xfc
000056  f7fffffe          BL       SendChar
00005a  20ff              MOVS     r0,#0xff
00005c  f7fffffe          BL       SendChar
000060  20ff              MOVS     r0,#0xff
000062  f7fffffe          BL       SendChar
;;;1008   }
000066  bd70              POP      {r4-r6,pc}
;;;1009   /*! 
                          ENDP


                          AREA ||i.SetScreen||, CODE, READONLY, ALIGN=1

                  SetScreen PROC
;;;834    */
;;;835    void SetScreen(uint16 screen_id)
000000  b510              PUSH     {r4,lr}
;;;836    {
000002  4604              MOV      r4,r0
;;;837        BEGIN_CMD();
000004  20ee              MOVS     r0,#0xee
000006  f7fffffe          BL       SendChar
;;;838        TX_8(0xB1);
00000a  20b1              MOVS     r0,#0xb1
00000c  f7fffffe          BL       SendChar
;;;839        TX_8(0x00);
000010  2000              MOVS     r0,#0
000012  f7fffffe          BL       SendChar
;;;840        TX_16(screen_id);
000016  0a20              LSRS     r0,r4,#8
000018  f7fffffe          BL       SendChar
00001c  b2e0              UXTB     r0,r4
00001e  f7fffffe          BL       SendChar
;;;841        END_CMD();
000022  20ff              MOVS     r0,#0xff
000024  f7fffffe          BL       SendChar
000028  20fc              MOVS     r0,#0xfc
00002a  f7fffffe          BL       SendChar
00002e  20ff              MOVS     r0,#0xff
000030  f7fffffe          BL       SendChar
000034  20ff              MOVS     r0,#0xff
000036  f7fffffe          BL       SendChar
;;;842    }
00003a  bd10              POP      {r4,pc}
;;;843    /*! 
                          ENDP


                          AREA ||i.SetScreenUpdateEnable||, CODE, READONLY, ALIGN=1

                  SetScreenUpdateEnable PROC
;;;851    */
;;;852    void SetScreenUpdateEnable(uint8 enable)
000000  b510              PUSH     {r4,lr}
;;;853    {
000002  4604              MOV      r4,r0
;;;854        BEGIN_CMD();
000004  20ee              MOVS     r0,#0xee
000006  f7fffffe          BL       SendChar
;;;855        TX_8(0xB3);
00000a  20b3              MOVS     r0,#0xb3
00000c  f7fffffe          BL       SendChar
;;;856        TX_8(enable);
000010  b2e0              UXTB     r0,r4
000012  f7fffffe          BL       SendChar
;;;857        END_CMD();
000016  20ff              MOVS     r0,#0xff
000018  f7fffffe          BL       SendChar
00001c  20fc              MOVS     r0,#0xfc
00001e  f7fffffe          BL       SendChar
000022  20ff              MOVS     r0,#0xff
000024  f7fffffe          BL       SendChar
000028  20ff              MOVS     r0,#0xff
00002a  f7fffffe          BL       SendChar
;;;858    }
00002e  bd10              POP      {r4,pc}
;;;859    /*! 
                          ENDP


                          AREA ||i.SetSelectorValue||, CODE, READONLY, ALIGN=1

                  SetSelectorValue PROC
;;;1063   */
;;;1064   void SetSelectorValue(uint16 screen_id,uint16 control_id,uint8 item)
000000  b570              PUSH     {r4-r6,lr}
;;;1065   {
000002  4604              MOV      r4,r0
000004  460d              MOV      r5,r1
000006  4616              MOV      r6,r2
;;;1066       BEGIN_CMD();
000008  20ee              MOVS     r0,#0xee
00000a  f7fffffe          BL       SendChar
;;;1067       TX_8(0xB1);
00000e  20b1              MOVS     r0,#0xb1
000010  f7fffffe          BL       SendChar
;;;1068       TX_8(0x10);
000014  2010              MOVS     r0,#0x10
000016  f7fffffe          BL       SendChar
;;;1069       TX_16(screen_id);
00001a  0a20              LSRS     r0,r4,#8
00001c  f7fffffe          BL       SendChar
000020  b2e0              UXTB     r0,r4
000022  f7fffffe          BL       SendChar
;;;1070       TX_16(control_id);
000026  0a28              LSRS     r0,r5,#8
000028  f7fffffe          BL       SendChar
00002c  b2e8              UXTB     r0,r5
00002e  f7fffffe          BL       SendChar
;;;1071       TX_8(item);
000032  b2f0              UXTB     r0,r6
000034  f7fffffe          BL       SendChar
;;;1072       END_CMD();
000038  20ff              MOVS     r0,#0xff
00003a  f7fffffe          BL       SendChar
00003e  20fc              MOVS     r0,#0xfc
000040  f7fffffe          BL       SendChar
000044  20ff              MOVS     r0,#0xff
000046  f7fffffe          BL       SendChar
00004a  20ff              MOVS     r0,#0xff
00004c  f7fffffe          BL       SendChar
;;;1073   }
000050  bd70              POP      {r4-r6,pc}
;;;1074   /*! 
                          ENDP


                          AREA ||i.SetSliderValue||, CODE, READONLY, ALIGN=1

                  SetSliderValue PROC
;;;1047   
;;;1048   void SetSliderValue(uint16 screen_id,uint16 control_id,uint32 value)
000000  b570              PUSH     {r4-r6,lr}
;;;1049   {
000002  4605              MOV      r5,r0
000004  460e              MOV      r6,r1
000006  4614              MOV      r4,r2
;;;1050       BEGIN_CMD();
000008  20ee              MOVS     r0,#0xee
00000a  f7fffffe          BL       SendChar
;;;1051       TX_8(0xB1);
00000e  20b1              MOVS     r0,#0xb1
000010  f7fffffe          BL       SendChar
;;;1052       TX_8(0x10);
000014  2010              MOVS     r0,#0x10
000016  f7fffffe          BL       SendChar
;;;1053       TX_16(screen_id);
00001a  0a28              LSRS     r0,r5,#8
00001c  f7fffffe          BL       SendChar
000020  b2e8              UXTB     r0,r5
000022  f7fffffe          BL       SendChar
;;;1054       TX_16(control_id);
000026  0a30              LSRS     r0,r6,#8
000028  f7fffffe          BL       SendChar
00002c  b2f0              UXTB     r0,r6
00002e  f7fffffe          BL       SendChar
;;;1055       TX_32(value);
000032  0e20              LSRS     r0,r4,#24
000034  f7fffffe          BL       SendChar
000038  f3c44007          UBFX     r0,r4,#16,#8
00003c  f7fffffe          BL       SendChar
000040  f3c42007          UBFX     r0,r4,#8,#8
000044  f7fffffe          BL       SendChar
000048  b2e0              UXTB     r0,r4
00004a  f7fffffe          BL       SendChar
;;;1056       END_CMD();
00004e  20ff              MOVS     r0,#0xff
000050  f7fffffe          BL       SendChar
000054  20fc              MOVS     r0,#0xfc
000056  f7fffffe          BL       SendChar
00005a  20ff              MOVS     r0,#0xff
00005c  f7fffffe          BL       SendChar
000060  20ff              MOVS     r0,#0xff
000062  f7fffffe          BL       SendChar
;;;1057   }
000066  bd70              POP      {r4-r6,pc}
;;;1058   /*! 
                          ENDP


                          AREA ||i.SetTextFloat||, CODE, READONLY, ALIGN=1

                  SetTextFloat PROC
;;;968    */
;;;969    void SetTextFloat(uint16 screen_id,uint16 control_id,float value,uint8 precision,uint8 show_zeros)
000000  e92d41ff          PUSH     {r0-r8,lr}
;;;970    {
000004  4604              MOV      r4,r0
000006  460d              MOV      r5,r1
000008  461f              MOV      r7,r3
00000a  f8dd8028          LDR      r8,[sp,#0x28]
;;;971    	uint8 i = 0;
00000e  2600              MOVS     r6,#0
;;;972    
;;;973    	BEGIN_CMD();
000010  20ee              MOVS     r0,#0xee
000012  f7fffffe          BL       SendChar
;;;974    	TX_8(0xB1);
000016  20b1              MOVS     r0,#0xb1
000018  f7fffffe          BL       SendChar
;;;975    	TX_8(0x07);
00001c  2007              MOVS     r0,#7
00001e  f7fffffe          BL       SendChar
;;;976    	TX_16(screen_id);
000022  0a20              LSRS     r0,r4,#8
000024  f7fffffe          BL       SendChar
000028  b2e0              UXTB     r0,r4
00002a  f7fffffe          BL       SendChar
;;;977    	TX_16(control_id);
00002e  0a28              LSRS     r0,r5,#8
000030  f7fffffe          BL       SendChar
000034  b2e8              UXTB     r0,r5
000036  f7fffffe          BL       SendChar
;;;978    	TX_8(0x02);
00003a  2002              MOVS     r0,#2
00003c  f7fffffe          BL       SendChar
;;;979    	TX_8((precision&0x0f)|(show_zeros?0x80:0x00));
000040  f007010f          AND      r1,r7,#0xf
000044  f1b80f00          CMP      r8,#0
000048  d001              BEQ      |L105.78|
00004a  2280              MOVS     r2,#0x80
00004c  e000              B        |L105.80|
                  |L105.78|
00004e  2200              MOVS     r2,#0
                  |L105.80|
000050  4311              ORRS     r1,r1,r2
000052  b2c8              UXTB     r0,r1
000054  f7fffffe          BL       SendChar
;;;980    	
;;;981    	for (i=0;i<4;++i)
000058  2600              MOVS     r6,#0
00005a  e007              B        |L105.108|
                  |L105.92|
;;;982    	{
;;;983    	 //
;;;984    #if(0)
;;;985    		TX_8(((uint8 *)&value)[i]);
;;;986    #else
;;;987    		TX_8(((uint8 *)&value)[3-i]);
00005c  f1c60103          RSB      r1,r6,#3
000060  aa02              ADD      r2,sp,#8
000062  5c50              LDRB     r0,[r2,r1]
000064  f7fffffe          BL       SendChar
000068  1c70              ADDS     r0,r6,#1              ;981
00006a  b2c6              UXTB     r6,r0                 ;981
                  |L105.108|
00006c  2e04              CMP      r6,#4                 ;981
00006e  dbf5              BLT      |L105.92|
;;;988    #endif
;;;989    	}
;;;990    	END_CMD();
000070  20ff              MOVS     r0,#0xff
000072  f7fffffe          BL       SendChar
000076  20fc              MOVS     r0,#0xfc
000078  f7fffffe          BL       SendChar
00007c  20ff              MOVS     r0,#0xff
00007e  f7fffffe          BL       SendChar
000082  20ff              MOVS     r0,#0xff
000084  f7fffffe          BL       SendChar
;;;991    }
000088  e8bd81ff          POP      {r0-r8,pc}
;;;992    #endif
                          ENDP


                          AREA ||i.SetTextInt32||, CODE, READONLY, ALIGN=1

                  SetTextInt32 PROC
;;;948    */
;;;949    void SetTextInt32(uint16 screen_id,uint16 control_id,uint32 value,uint8 sign,uint8 fill_zero)
000000  e92d41f0          PUSH     {r4-r8,lr}
;;;950    {
000004  4605              MOV      r5,r0
000006  460e              MOV      r6,r1
000008  4614              MOV      r4,r2
00000a  461f              MOV      r7,r3
00000c  f8dd8018          LDR      r8,[sp,#0x18]
;;;951        BEGIN_CMD();
000010  20ee              MOVS     r0,#0xee
000012  f7fffffe          BL       SendChar
;;;952        TX_8(0xB1);
000016  20b1              MOVS     r0,#0xb1
000018  f7fffffe          BL       SendChar
;;;953        TX_8(0x07);
00001c  2007              MOVS     r0,#7
00001e  f7fffffe          BL       SendChar
;;;954        TX_16(screen_id);
000022  0a28              LSRS     r0,r5,#8
000024  f7fffffe          BL       SendChar
000028  b2e8              UXTB     r0,r5
00002a  f7fffffe          BL       SendChar
;;;955        TX_16(control_id);
00002e  0a30              LSRS     r0,r6,#8
000030  f7fffffe          BL       SendChar
000034  b2f0              UXTB     r0,r6
000036  f7fffffe          BL       SendChar
;;;956        TX_8(sign?0X01:0X00);
00003a  b10f              CBZ      r7,|L106.64|
00003c  2101              MOVS     r1,#1
00003e  e000              B        |L106.66|
                  |L106.64|
000040  2100              MOVS     r1,#0
                  |L106.66|
000042  b2c8              UXTB     r0,r1
000044  f7fffffe          BL       SendChar
;;;957        TX_8((fill_zero&0x0f)|0x80);
000048  f008010f          AND      r1,r8,#0xf
00004c  f0410080          ORR      r0,r1,#0x80
000050  f7fffffe          BL       SendChar
;;;958        TX_32(value);
000054  0e20              LSRS     r0,r4,#24
000056  f7fffffe          BL       SendChar
00005a  f3c44007          UBFX     r0,r4,#16,#8
00005e  f7fffffe          BL       SendChar
000062  f3c42007          UBFX     r0,r4,#8,#8
000066  f7fffffe          BL       SendChar
00006a  b2e0              UXTB     r0,r4
00006c  f7fffffe          BL       SendChar
;;;959        END_CMD();
000070  20ff              MOVS     r0,#0xff
000072  f7fffffe          BL       SendChar
000076  20fc              MOVS     r0,#0xfc
000078  f7fffffe          BL       SendChar
00007c  20ff              MOVS     r0,#0xff
00007e  f7fffffe          BL       SendChar
000082  20ff              MOVS     r0,#0xff
000084  f7fffffe          BL       SendChar
;;;960    }
000088  e8bd81f0          POP      {r4-r8,pc}
;;;961    /*! 
                          ENDP


                          AREA ||i.SetTextSpace||, CODE, READONLY, ALIGN=1

                  SetTextSpace PROC
;;;202    */
;;;203    void SetTextSpace(uint8 x_w, uint8 y_w)
000000  b570              PUSH     {r4-r6,lr}
;;;204    {
000002  4604              MOV      r4,r0
000004  460d              MOV      r5,r1
;;;205        BEGIN_CMD();
000006  20ee              MOVS     r0,#0xee
000008  f7fffffe          BL       SendChar
;;;206        TX_8(0x43);
00000c  2043              MOVS     r0,#0x43
00000e  f7fffffe          BL       SendChar
;;;207        TX_8(x_w);
000012  b2e0              UXTB     r0,r4
000014  f7fffffe          BL       SendChar
;;;208        TX_8(y_w);
000018  b2e8              UXTB     r0,r5
00001a  f7fffffe          BL       SendChar
;;;209        END_CMD();
00001e  20ff              MOVS     r0,#0xff
000020  f7fffffe          BL       SendChar
000024  20fc              MOVS     r0,#0xfc
000026  f7fffffe          BL       SendChar
00002a  20ff              MOVS     r0,#0xff
00002c  f7fffffe          BL       SendChar
000030  20ff              MOVS     r0,#0xff
000032  f7fffffe          BL       SendChar
;;;210    }
000036  bd70              POP      {r4-r6,pc}
;;;211    /*! 
                          ENDP


                          AREA ||i.SetTextValue||, CODE, READONLY, ALIGN=1

                  SetTextValue PROC
;;;928    */
;;;929    void SetTextValue(uint16 screen_id,uint16 control_id,uchar *str)
000000  b570              PUSH     {r4-r6,lr}
;;;930    {
000002  4604              MOV      r4,r0
000004  460d              MOV      r5,r1
000006  4616              MOV      r6,r2
;;;931        BEGIN_CMD();
000008  20ee              MOVS     r0,#0xee
00000a  f7fffffe          BL       SendChar
;;;932        TX_8(0xB1);
00000e  20b1              MOVS     r0,#0xb1
000010  f7fffffe          BL       SendChar
;;;933        TX_8(0x10);
000014  2010              MOVS     r0,#0x10
000016  f7fffffe          BL       SendChar
;;;934        TX_16(screen_id);
00001a  0a20              LSRS     r0,r4,#8
00001c  f7fffffe          BL       SendChar
000020  b2e0              UXTB     r0,r4
000022  f7fffffe          BL       SendChar
;;;935        TX_16(control_id);
000026  0a28              LSRS     r0,r5,#8
000028  f7fffffe          BL       SendChar
00002c  b2e8              UXTB     r0,r5
00002e  f7fffffe          BL       SendChar
;;;936        SendStrings(str);
000032  4630              MOV      r0,r6
000034  f7fffffe          BL       SendStrings
;;;937        END_CMD();
000038  20ff              MOVS     r0,#0xff
00003a  f7fffffe          BL       SendChar
00003e  20fc              MOVS     r0,#0xfc
000040  f7fffffe          BL       SendChar
000044  20ff              MOVS     r0,#0xff
000046  f7fffffe          BL       SendChar
00004a  20ff              MOVS     r0,#0xff
00004c  f7fffffe          BL       SendChar
;;;938    }
000050  bd70              POP      {r4-r6,pc}
;;;939    
                          ENDP


                          AREA ||i.SetTouchPaneOption||, CODE, READONLY, ALIGN=1

                  SetTouchPaneOption PROC
;;;647    */
;;;648    void SetTouchPaneOption(uint8 enbale,uint8 beep_on,uint8 work_mode,uint8 press_calibration)
000000  e92d41f0          PUSH     {r4-r8,lr}
;;;649    {
000004  4607              MOV      r7,r0
000006  4688              MOV      r8,r1
000008  4615              MOV      r5,r2
00000a  461e              MOV      r6,r3
;;;650        uint8 options = 0;
00000c  2400              MOVS     r4,#0
;;;651    
;;;652        if(enbale)
00000e  b10f              CBZ      r7,|L109.20|
;;;653            options |= 0x01;
000010  f0440401          ORR      r4,r4,#1
                  |L109.20|
;;;654        if(beep_on)
000014  f1b80f00          CMP      r8,#0
000018  d001              BEQ      |L109.30|
;;;655            options |= 0x02;
00001a  f0440402          ORR      r4,r4,#2
                  |L109.30|
;;;656        if(work_mode)
00001e  b115              CBZ      r5,|L109.38|
;;;657            options |= (work_mode<<2);
000020  ea440085          ORR      r0,r4,r5,LSL #2
000024  b2c4              UXTB     r4,r0
                  |L109.38|
;;;658        if(press_calibration)
000026  b116              CBZ      r6,|L109.46|
;;;659            options |= (press_calibration<<5);
000028  ea441046          ORR      r0,r4,r6,LSL #5
00002c  b2c4              UXTB     r4,r0
                  |L109.46|
;;;660    
;;;661        BEGIN_CMD();
00002e  20ee              MOVS     r0,#0xee
000030  f7fffffe          BL       SendChar
;;;662        TX_8(0x70);
000034  2070              MOVS     r0,#0x70
000036  f7fffffe          BL       SendChar
;;;663        TX_8(options);
00003a  b2e0              UXTB     r0,r4
00003c  f7fffffe          BL       SendChar
;;;664        END_CMD();
000040  20ff              MOVS     r0,#0xff
000042  f7fffffe          BL       SendChar
000046  20fc              MOVS     r0,#0xfc
000048  f7fffffe          BL       SendChar
00004c  20ff              MOVS     r0,#0xff
00004e  f7fffffe          BL       SendChar
000052  20ff              MOVS     r0,#0xff
000054  f7fffffe          BL       SendChar
;;;665    }
000058  e8bd81f0          POP      {r4-r8,pc}
;;;666    /*! 
                          ENDP


                          AREA ||i.Set_picMeterValue||, CODE, READONLY, ALIGN=1

                  Set_picMeterValue PROC
;;;1030   */
;;;1031   void Set_picMeterValue(uint16 screen_id,uint16 control_id,uint16 value)
000000  b570              PUSH     {r4-r6,lr}
;;;1032   {
000002  4604              MOV      r4,r0
000004  460d              MOV      r5,r1
000006  4616              MOV      r6,r2
;;;1033       BEGIN_CMD();
000008  20ee              MOVS     r0,#0xee
00000a  f7fffffe          BL       SendChar
;;;1034       TX_8(0xB1);
00000e  20b1              MOVS     r0,#0xb1
000010  f7fffffe          BL       SendChar
;;;1035       TX_8(0x10);
000014  2010              MOVS     r0,#0x10
000016  f7fffffe          BL       SendChar
;;;1036       TX_16(screen_id);
00001a  0a20              LSRS     r0,r4,#8
00001c  f7fffffe          BL       SendChar
000020  b2e0              UXTB     r0,r4
000022  f7fffffe          BL       SendChar
;;;1037       TX_16(control_id);
000026  0a28              LSRS     r0,r5,#8
000028  f7fffffe          BL       SendChar
00002c  b2e8              UXTB     r0,r5
00002e  f7fffffe          BL       SendChar
;;;1038       TX_16(value);
000032  0a30              LSRS     r0,r6,#8
000034  f7fffffe          BL       SendChar
000038  b2f0              UXTB     r0,r6
00003a  f7fffffe          BL       SendChar
;;;1039       END_CMD();
00003e  20ff              MOVS     r0,#0xff
000040  f7fffffe          BL       SendChar
000044  20fc              MOVS     r0,#0xfc
000046  f7fffffe          BL       SendChar
00004a  20ff              MOVS     r0,#0xff
00004c  f7fffffe          BL       SendChar
000050  20ff              MOVS     r0,#0xff
000052  f7fffffe          BL       SendChar
;;;1040   }
000056  bd70              POP      {r4-r6,pc}
;;;1041   /*! 
                          ENDP


                          AREA ||i.ShowKeyboard||, CODE, READONLY, ALIGN=1

                  ShowKeyboard PROC
;;;1511   */
;;;1512   void ShowKeyboard(uint8 show,uint16 x,uint16 y,uint8 type,uint8 option,uint8 max_len)
000000  e92d47f0          PUSH     {r4-r10,lr}
;;;1513   {
000004  4606              MOV      r6,r0
000006  460c              MOV      r4,r1
000008  4615              MOV      r5,r2
00000a  461f              MOV      r7,r3
00000c  e9dd8908          LDRD     r8,r9,[sp,#0x20]
;;;1514       BEGIN_CMD();
000010  20ee              MOVS     r0,#0xee
000012  f7fffffe          BL       SendChar
;;;1515       TX_8(0x86);
000016  2086              MOVS     r0,#0x86
000018  f7fffffe          BL       SendChar
;;;1516       TX_8(show);
00001c  b2f0              UXTB     r0,r6
00001e  f7fffffe          BL       SendChar
;;;1517       TX_16(x);
000022  0a20              LSRS     r0,r4,#8
000024  f7fffffe          BL       SendChar
000028  b2e0              UXTB     r0,r4
00002a  f7fffffe          BL       SendChar
;;;1518       TX_16(y);
00002e  0a28              LSRS     r0,r5,#8
000030  f7fffffe          BL       SendChar
000034  b2e8              UXTB     r0,r5
000036  f7fffffe          BL       SendChar
;;;1519       TX_8(type);
00003a  b2f8              UXTB     r0,r7
00003c  f7fffffe          BL       SendChar
;;;1520       TX_8(option);
000040  f00800ff          AND      r0,r8,#0xff
000044  f7fffffe          BL       SendChar
;;;1521       TX_8(max_len);
000048  f00900ff          AND      r0,r9,#0xff
00004c  f7fffffe          BL       SendChar
;;;1522       END_CMD();
000050  20ff              MOVS     r0,#0xff
000052  f7fffffe          BL       SendChar
000056  20fc              MOVS     r0,#0xfc
000058  f7fffffe          BL       SendChar
00005c  20ff              MOVS     r0,#0xff
00005e  f7fffffe          BL       SendChar
000062  20ff              MOVS     r0,#0xff
000064  f7fffffe          BL       SendChar
;;;1523   }
000068  e8bd87f0          POP      {r4-r10,pc}
;;;1524   
                          ENDP


                          AREA ||i.ShowPopupMenu||, CODE, READONLY, ALIGN=1

                  ShowPopupMenu PROC
;;;1491   */
;;;1492   void ShowPopupMenu(uint16 screen_id,uint16 control_id,uint8 show,uint16 focus_control_id)
000000  e92d41f0          PUSH     {r4-r8,lr}
;;;1493   {
000004  4604              MOV      r4,r0
000006  460d              MOV      r5,r1
000008  4617              MOV      r7,r2
00000a  461e              MOV      r6,r3
;;;1494       BEGIN_CMD();
00000c  20ee              MOVS     r0,#0xee
00000e  f7fffffe          BL       SendChar
;;;1495       TX_8(0xB1);
000012  20b1              MOVS     r0,#0xb1
000014  f7fffffe          BL       SendChar
;;;1496       TX_8(0x13);
000018  2013              MOVS     r0,#0x13
00001a  f7fffffe          BL       SendChar
;;;1497       TX_16(screen_id);
00001e  0a20              LSRS     r0,r4,#8
000020  f7fffffe          BL       SendChar
000024  b2e0              UXTB     r0,r4
000026  f7fffffe          BL       SendChar
;;;1498       TX_16(control_id);
00002a  0a28              LSRS     r0,r5,#8
00002c  f7fffffe          BL       SendChar
000030  b2e8              UXTB     r0,r5
000032  f7fffffe          BL       SendChar
;;;1499       TX_8(show);
000036  b2f8              UXTB     r0,r7
000038  f7fffffe          BL       SendChar
;;;1500       TX_16(focus_control_id);
00003c  0a30              LSRS     r0,r6,#8
00003e  f7fffffe          BL       SendChar
000042  b2f0              UXTB     r0,r6
000044  f7fffffe          BL       SendChar
;;;1501       END_CMD();
000048  20ff              MOVS     r0,#0xff
00004a  f7fffffe          BL       SendChar
00004e  20fc              MOVS     r0,#0xfc
000050  f7fffffe          BL       SendChar
000054  20ff              MOVS     r0,#0xff
000056  f7fffffe          BL       SendChar
00005a  20ff              MOVS     r0,#0xff
00005c  f7fffffe          BL       SendChar
;;;1502   }
000060  e8bd81f0          POP      {r4-r8,pc}
;;;1503   /*! 
                          ENDP


                          AREA ||i.StartTimer||, CODE, READONLY, ALIGN=1

                  StartTimer PROC
;;;1413   */
;;;1414   void StartTimer(uint16 screen_id,uint16 control_id)
000000  b570              PUSH     {r4-r6,lr}
;;;1415   {
000002  4604              MOV      r4,r0
000004  460d              MOV      r5,r1
;;;1416       BEGIN_CMD();
000006  20ee              MOVS     r0,#0xee
000008  f7fffffe          BL       SendChar
;;;1417       TX_8(0xB1);
00000c  20b1              MOVS     r0,#0xb1
00000e  f7fffffe          BL       SendChar
;;;1418       TX_8(0x41);
000012  2041              MOVS     r0,#0x41
000014  f7fffffe          BL       SendChar
;;;1419       TX_16(screen_id);
000018  0a20              LSRS     r0,r4,#8
00001a  f7fffffe          BL       SendChar
00001e  b2e0              UXTB     r0,r4
000020  f7fffffe          BL       SendChar
;;;1420       TX_16(control_id);
000024  0a28              LSRS     r0,r5,#8
000026  f7fffffe          BL       SendChar
00002a  b2e8              UXTB     r0,r5
00002c  f7fffffe          BL       SendChar
;;;1421       END_CMD();
000030  20ff              MOVS     r0,#0xff
000032  f7fffffe          BL       SendChar
000036  20fc              MOVS     r0,#0xfc
000038  f7fffffe          BL       SendChar
00003c  20ff              MOVS     r0,#0xff
00003e  f7fffffe          BL       SendChar
000042  20ff              MOVS     r0,#0xff
000044  f7fffffe          BL       SendChar
;;;1422   }
000048  bd70              POP      {r4-r6,pc}
;;;1423   /*! 
                          ENDP


                          AREA ||i.StopTimer||, CODE, READONLY, ALIGN=1

                  StopTimer PROC
;;;1427   */
;;;1428   void StopTimer(uint16 screen_id,uint16 control_id)
000000  b570              PUSH     {r4-r6,lr}
;;;1429   {
000002  4604              MOV      r4,r0
000004  460d              MOV      r5,r1
;;;1430       BEGIN_CMD();
000006  20ee              MOVS     r0,#0xee
000008  f7fffffe          BL       SendChar
;;;1431       TX_8(0xB1);
00000c  20b1              MOVS     r0,#0xb1
00000e  f7fffffe          BL       SendChar
;;;1432       TX_8(0x42);
000012  2042              MOVS     r0,#0x42
000014  f7fffffe          BL       SendChar
;;;1433       TX_16(screen_id);
000018  0a20              LSRS     r0,r4,#8
00001a  f7fffffe          BL       SendChar
00001e  b2e0              UXTB     r0,r4
000020  f7fffffe          BL       SendChar
;;;1434       TX_16(control_id);
000024  0a28              LSRS     r0,r5,#8
000026  f7fffffe          BL       SendChar
00002a  b2e8              UXTB     r0,r5
00002c  f7fffffe          BL       SendChar
;;;1435       END_CMD();
000030  20ff              MOVS     r0,#0xff
000032  f7fffffe          BL       SendChar
000036  20fc              MOVS     r0,#0xfc
000038  f7fffffe          BL       SendChar
00003c  20ff              MOVS     r0,#0xff
00003e  f7fffffe          BL       SendChar
000042  20ff              MOVS     r0,#0xff
000044  f7fffffe          BL       SendChar
;;;1436   }
000048  bd70              POP      {r4-r6,pc}
;;;1437   /*! 
                          ENDP


                          AREA ||i.TestTouchPane||, CODE, READONLY, ALIGN=1

                  TestTouchPane PROC
;;;677    */
;;;678    void TestTouchPane()
000000  b510              PUSH     {r4,lr}
;;;679    {
;;;680        BEGIN_CMD();
000002  20ee              MOVS     r0,#0xee
000004  f7fffffe          BL       SendChar
;;;681        TX_8(0x73);
000008  2073              MOVS     r0,#0x73
00000a  f7fffffe          BL       SendChar
;;;682        END_CMD();
00000e  20ff              MOVS     r0,#0xff
000010  f7fffffe          BL       SendChar
000014  20fc              MOVS     r0,#0xfc
000016  f7fffffe          BL       SendChar
00001a  20ff              MOVS     r0,#0xff
00001c  f7fffffe          BL       SendChar
000020  20ff              MOVS     r0,#0xff
000022  f7fffffe          BL       SendChar
;;;683    }
000026  bd10              POP      {r4,pc}
;;;684    
                          ENDP


                          AREA ||i.UnlockDeviceConfig||, CODE, READONLY, ALIGN=1

                  UnlockDeviceConfig PROC
;;;701    */
;;;702    void UnlockDeviceConfig(void)
000000  b510              PUSH     {r4,lr}
;;;703    {
;;;704        BEGIN_CMD();
000002  20ee              MOVS     r0,#0xee
000004  f7fffffe          BL       SendChar
;;;705        TX_8(0x08);
000008  2008              MOVS     r0,#8
00000a  f7fffffe          BL       SendChar
;;;706        TX_8(0xA5);
00000e  20a5              MOVS     r0,#0xa5
000010  f7fffffe          BL       SendChar
;;;707        TX_8(0x5A);
000014  205a              MOVS     r0,#0x5a
000016  f7fffffe          BL       SendChar
;;;708        TX_8(0x5F);
00001a  205f              MOVS     r0,#0x5f
00001c  f7fffffe          BL       SendChar
;;;709        TX_8(0xF5);
000020  20f5              MOVS     r0,#0xf5
000022  f7fffffe          BL       SendChar
;;;710        END_CMD();
000026  20ff              MOVS     r0,#0xff
000028  f7fffffe          BL       SendChar
00002c  20fc              MOVS     r0,#0xfc
00002e  f7fffffe          BL       SendChar
000032  20ff              MOVS     r0,#0xff
000034  f7fffffe          BL       SendChar
000038  20ff              MOVS     r0,#0xff
00003a  f7fffffe          BL       SendChar
;;;711    }
00003e  bd10              POP      {r4,pc}
;;;712    /*! 
                          ENDP


                          AREA ||i.WriteLayer||, CODE, READONLY, ALIGN=1

                  WriteLayer PROC
;;;738    */
;;;739    void WriteLayer(uint8 layer)
000000  b510              PUSH     {r4,lr}
;;;740    {
000002  4604              MOV      r4,r0
;;;741        BEGIN_CMD();
000004  20ee              MOVS     r0,#0xee
000006  f7fffffe          BL       SendChar
;;;742        TX_8(0xA1);
00000a  20a1              MOVS     r0,#0xa1
00000c  f7fffffe          BL       SendChar
;;;743        TX_8(layer);
000010  b2e0              UXTB     r0,r4
000012  f7fffffe          BL       SendChar
;;;744        END_CMD();
000016  20ff              MOVS     r0,#0xff
000018  f7fffffe          BL       SendChar
00001c  20fc              MOVS     r0,#0xfc
00001e  f7fffffe          BL       SendChar
000022  20ff              MOVS     r0,#0xff
000024  f7fffffe          BL       SendChar
000028  20ff              MOVS     r0,#0xff
00002a  f7fffffe          BL       SendChar
;;;745    }
00002e  bd10              POP      {r4,pc}
;;;746    /*! 
                          ENDP


                          AREA ||i.WriteUserFlash||, CODE, READONLY, ALIGN=1

                  WriteUserFlash PROC
;;;799    */
;;;800    void WriteUserFlash(uint32 startAddress,uint16 length,uint8 *_data)
000000  b570              PUSH     {r4-r6,lr}
;;;801    {
000002  4604              MOV      r4,r0
000004  460e              MOV      r6,r1
000006  4615              MOV      r5,r2
;;;802        BEGIN_CMD();
000008  20ee              MOVS     r0,#0xee
00000a  f7fffffe          BL       SendChar
;;;803        TX_8(0x87);
00000e  2087              MOVS     r0,#0x87
000010  f7fffffe          BL       SendChar
;;;804        TX_32(startAddress);
000014  0e20              LSRS     r0,r4,#24
000016  f7fffffe          BL       SendChar
00001a  f3c44007          UBFX     r0,r4,#16,#8
00001e  f7fffffe          BL       SendChar
000022  f3c42007          UBFX     r0,r4,#8,#8
000026  f7fffffe          BL       SendChar
00002a  b2e0              UXTB     r0,r4
00002c  f7fffffe          BL       SendChar
;;;805        TX_8N(_data,length);
000030  4631              MOV      r1,r6
000032  4628              MOV      r0,r5
000034  f7fffffe          BL       SendNU8
;;;806        END_CMD();
000038  20ff              MOVS     r0,#0xff
00003a  f7fffffe          BL       SendChar
00003e  20fc              MOVS     r0,#0xfc
000040  f7fffffe          BL       SendChar
000044  20ff              MOVS     r0,#0xff
000046  f7fffffe          BL       SendChar
00004a  20ff              MOVS     r0,#0xff
00004c  f7fffffe          BL       SendChar
;;;807    }
000050  bd70              POP      {r4-r6,pc}
;;;808    /*! 
                          ENDP


;*** Start embedded assembler ***

#line 1 "..\\..\\User\\lcd\\src\\hmi_driver.c"
	AREA ||.rev16_text||, CODE
	THUMB
	EXPORT |__asm___12_hmi_driver_c_DelayMS____REV16|
#line 114 "..\\..\\Libraries\\CMSIS\\Include\\core_cmInstr.h"
|__asm___12_hmi_driver_c_DelayMS____REV16| PROC
#line 115

 rev16 r0, r0
 bx lr
	ENDP
	AREA ||.revsh_text||, CODE
	THUMB
	EXPORT |__asm___12_hmi_driver_c_DelayMS____REVSH|
#line 128
|__asm___12_hmi_driver_c_DelayMS____REVSH| PROC
#line 129

 revsh r0, r0
 bx lr
	ENDP

;*** End   embedded assembler ***
